Certificate:
    Data:
        Version: 3 (0x2)
        Serial Number:
            28:56:85:07:b8:f4:73:91:b4:51:95:b7:d8:3d:71:06
    Signature Algorithm: sha256WithRSAEncryption
        Issuer: CN=ca.vpn.iwe.cloud
        Validity
            Not Before: Feb 26 12:24:29 2018 GMT
            Not After : Feb 24 12:24:29 2028 GMT
        Subject: CN=000-000-000.pool.iwe.cloud
        Subject Public Key Info:
            Public Key Algorithm: rsaEncryption
                Public-Key: (2048 bit)
                Modulus:
                    00:e0:32:01:e4:42:c1:eb:07:38:e4:55:84:7c:8b:
                    8a:a3:fe:f0:c5:79:97:97:e6:89:ac:94:8f:73:51:
                    43:45:44:3a:33:7a:2a:2d:12:47:a8:43:58:f5:df:
                    9e:56:e9:57:b2:a8:cb:b3:37:84:c5:b2:78:6b:30:
                    92:18:05:a0:a1:76:2b:18:13:eb:48:34:2f:b8:64:
                    67:34:e7:b7:41:99:05:19:7c:a6:1c:82:94:cd:9c:
                    f4:54:49:93:de:20:51:f7:e9:cc:d0:61:18:e9:d3:
                    bf:64:23:ea:62:28:39:82:7d:d5:c3:a8:1a:7a:75:
                    80:04:76:26:dd:0f:9c:9f:49:1a:1c:07:ab:98:ec:
                    40:15:bd:64:61:90:cb:63:4e:65:3b:59:67:b3:ff:
                    25:c9:06:e2:03:0d:5f:03:5c:51:11:27:97:9f:63:
                    af:b8:41:c6:ca:95:44:a4:37:fa:f2:8b:df:0c:a6:
                    ab:2d:0c:fa:c9:94:51:33:fe:d8:f8:a4:6a:6c:69:
                    73:b1:77:78:98:5e:ff:3f:c2:df:e9:b7:f2:64:9a:
                    2e:13:41:27:76:82:27:b7:f8:8e:bd:2e:f9:34:91:
                    d1:04:1f:ac:7b:e9:dd:7f:39:c8:a6:7d:f9:d3:cc:
                    dc:88:c5:ba:21:e4:3f:08:11:5d:4c:50:c4:69:35:
                    43:e9
                Exponent: 65537 (0x10001)
        X509v3 extensions:
            X509v3 Basic Constraints: 
                CA:FALSE
            X509v3 Subject Key Identifier: 
                B3:BB:89:44:4E:2A:24:5A:D6:B3:DA:6C:D3:C2:F8:E2:28:FD:31:CC
            X509v3 Authority Key Identifier: 
                keyid:0E:33:82:DE:B3:32:8A:A7:DB:B2:C7:9D:28:4D:F3:7B:AB:A0:31:8C
                DirName:/CN=ca.vpn.iwe.cloud
                serial:89:A4:6D:17:37:78:20:66

            X509v3 Extended Key Usage: 
                TLS Web Client Authentication
            X509v3 Key Usage: 
                Digital Signature
    Signature Algorithm: sha256WithRSAEncryption
         7f:27:59:7d:92:bb:11:50:04:e8:02:00:3b:1b:88:34:a5:25:
         1f:b7:47:97:dc:29:4c:f8:3e:a5:03:e3:3a:50:ed:38:d8:0e:
         1c:b1:20:d3:ba:7a:d8:cf:18:1a:b2:4a:2e:19:20:68:da:86:
         9c:6f:b5:62:20:5b:ee:5a:49:ac:9c:36:81:43:75:e7:ff:ca:
         b6:ba:6e:1d:b2:8a:52:b2:21:7f:b1:3a:2c:ea:3a:f2:5c:7c:
         58:34:ca:75:fa:76:f5:24:c8:86:53:7a:ee:a2:98:b6:a7:e6:
         37:05:b7:43:9b:56:73:f4:4d:13:1a:1c:68:30:a6:6f:d6:b3:
         5f:e9:26:23:8a:a7:70:a2:84:cc:f2:ef:b7:2c:dd:5a:17:9f:
         46:3e:35:74:5d:ee:73:1e:1a:c4:79:50:78:d2:2f:bd:40:56:
         f8:d0:d2:62:eb:b2:56:a6:f8:6f:60:28:8c:6f:5d:19:16:0d:
         7c:e1:81:35:0c:85:49:f3:e2:28:f5:c3:79:45:d1:cf:14:80:
         c0:80:df:8c:9d:56:b9:b8:d1:4e:82:b9:83:de:07:84:58:44:
         49:fe:6f:6b:f2:25:e1:6f:3b:5b:d8:d7:b6:11:37:cb:e1:e8:
         b9:8a:0e:ea:25:61:35:f1:58:5e:49:76:d4:39:fb:23:6a:4c:
         9f:fb:43:57
-----BEGIN CERTIFICATE-----
MIIDZzCCAk+gAwIBAgIQKFaFB7j0c5G0UZW32D1xBjANBgkqhkiG9w0BAQsFADAb
MRkwFwYDVQQDDBBjYS52cG4uaXdlLmNsb3VkMB4XDTE4MDIyNjEyMjQyOVoXDTI4
MDIyNDEyMjQyOVowJTEjMCEGA1UEAwwaMDAwLTAwMC0wMDAucG9vbC5pd2UuY2xv
dWQwggEiMA0GCSqGSIb3DQEBAQUAA4IBDwAwggEKAoIBAQDgMgHkQsHrBzjkVYR8
i4qj/vDFeZeX5omslI9zUUNFRDozeiotEkeoQ1j1355W6VeyqMuzN4TFsnhrMJIY
BaChdisYE+tINC+4ZGc057dBmQUZfKYcgpTNnPRUSZPeIFH36czQYRjp079kI+pi
KDmCfdXDqBp6dYAEdibdD5yfSRocB6uY7EAVvWRhkMtjTmU7WWez/yXJBuIDDV8D
XFERJ5efY6+4QcbKlUSkN/ryi98MpqstDPrJlFEz/tj4pGpsaXOxd3iYXv8/wt/p
t/Jkmi4TQSd2gie3+I69Lvk0kdEEH6x76d1/OcimffnTzNyIxboh5D8IEV1MUMRp
NUPpAgMBAAGjgZwwgZkwCQYDVR0TBAIwADAdBgNVHQ4EFgQUs7uJRE4qJFrWs9ps
08L44ij9McwwSwYDVR0jBEQwQoAUDjOC3rMyiqfbssedKE3ze6ugMYyhH6QdMBsx
GTAXBgNVBAMMEGNhLnZwbi5pd2UuY2xvdWSCCQCJpG0XN3ggZjATBgNVHSUEDDAK
BggrBgEFBQcDAjALBgNVHQ8EBAMCB4AwDQYJKoZIhvcNAQELBQADggEBAH8nWX2S
uxFQBOgCADsbiDSlJR+3R5fcKUz4PqUD4zpQ7TjYDhyxINO6etjPGBqySi4ZIGja
hpxvtWIgW+5aSaycNoFDdef/yra6bh2yilKyIX+xOizqOvJcfFg0ynX6dvUkyIZT
eu6imLan5jcFt0ObVnP0TRMaHGgwpm/Ws1/pJiOKp3CihMzy77cs3VoXn0Y+NXRd
7nMeGsR5UHjSL71AVvjQ0mLrslam+G9gKIxvXRkWDXzhgTUMhUnz4ij1w3lF0c8U
gMCA34ydVrm40U6CuYPeB4RYREn+b2vyJeFvO1vY17YRN8vh6LmKDuolYTXxWF5J
dtQ5+yNqTJ/7Q1c=
-----END CERTIFICATE-----
