Certificate:
    Data:
        Version: 3 (0x2)
        Serial Number:
            ac:4f:47:59:93:ce:30:cc:ec:4c:77:bf:2a:8b:3e:e7
    Signature Algorithm: sha256WithRSAEncryption
        Issuer: CN=ca.vpn.iwe.cloud
        Validity
            Not Before: Mar 29 17:47:59 2018 GMT
            Not After : Mar 26 17:47:59 2028 GMT
        Subject: CN=e52a07ddc72e4b35beaa271d03d82f0ef
        Subject Public Key Info:
            Public Key Algorithm: rsaEncryption
                Public-Key: (2048 bit)
                Modulus:
                    00:b9:42:9f:f0:cb:91:3f:9c:cc:60:65:59:a8:e5:
                    50:c4:b9:e2:4e:ac:e1:e8:b4:a8:32:fc:97:83:9a:
                    a3:d7:a4:8f:ea:36:24:bf:81:d7:ee:0d:e9:ea:12:
                    bf:73:57:d1:61:e9:28:87:9e:d8:08:8a:7b:54:d8:
                    6b:2a:b3:3c:cd:65:21:48:7e:bb:f4:46:0f:35:ee:
                    01:1d:70:58:a7:09:e8:cd:92:d2:b8:3e:49:5e:07:
                    fa:4a:73:64:9f:95:43:4f:75:9a:a2:fc:e2:b1:92:
                    f6:48:a1:dd:3b:e1:57:4a:72:f8:d8:6e:7f:64:8b:
                    aa:39:5c:94:6e:d9:85:92:fc:25:47:a5:f1:4f:9f:
                    03:7d:e9:2f:9a:23:9d:d9:62:99:07:56:1a:8e:d2:
                    35:fe:5e:eb:98:b4:05:87:f5:43:f5:8c:3b:f9:dd:
                    6f:ce:76:ea:2e:8e:41:a1:07:0d:fe:3d:ab:81:f2:
                    41:42:0e:fc:e0:9f:6c:74:cf:fb:ff:a3:ac:26:e0:
                    54:06:79:66:22:72:8c:48:9b:c7:a7:2c:07:8e:26:
                    00:99:94:bc:ac:6f:5c:79:74:87:ee:36:72:97:13:
                    56:ed:f5:22:47:19:20:29:05:ec:28:fc:bd:73:16:
                    11:32:d3:03:39:1a:3f:45:e6:a8:e7:1f:6e:c6:e0:
                    49:bd
                Exponent: 65537 (0x10001)
        X509v3 extensions:
            X509v3 Basic Constraints: 
                CA:FALSE
            X509v3 Subject Key Identifier: 
                CA:99:95:AA:A2:5A:66:AA:E3:F7:80:EC:37:AE:AC:F1:14:75:04:20
            X509v3 Authority Key Identifier: 
                keyid:0E:33:82:DE:B3:32:8A:A7:DB:B2:C7:9D:28:4D:F3:7B:AB:A0:31:8C
                DirName:/CN=ca.vpn.iwe.cloud
                serial:89:A4:6D:17:37:78:20:66

            X509v3 Extended Key Usage: 
                TLS Web Client Authentication
            X509v3 Key Usage: 
                Digital Signature
    Signature Algorithm: sha256WithRSAEncryption
         92:ab:cb:d9:3e:38:bd:1c:c9:41:b6:0c:85:d2:d6:b9:78:21:
         23:30:bb:a3:ca:73:44:77:e0:18:1c:a8:1b:ab:79:be:c2:60:
         0f:3c:e7:a9:a3:57:30:6e:00:47:93:b1:c5:cc:18:de:aa:46:
         ca:eb:12:dc:53:6e:29:e0:b6:ea:12:c4:eb:9f:49:b9:1e:9a:
         15:b9:6f:c0:6a:9f:02:48:af:c0:e3:27:16:81:10:cc:c5:3f:
         d3:5e:24:5d:15:d3:f5:f6:4b:3e:2a:fe:bb:35:82:1e:23:37:
         f3:43:8e:6e:3b:8c:65:46:80:2a:41:05:94:65:0e:c7:f1:a2:
         ff:c2:ed:07:93:c9:5d:22:2b:74:85:a7:05:d0:da:36:45:f9:
         4a:66:a3:77:d7:d3:9d:f7:b1:a2:7a:41:a4:8a:60:5f:69:db:
         7e:7b:ab:08:3a:fc:1d:dd:e8:90:bc:1f:c7:ee:cf:71:18:00:
         5c:04:51:6d:93:6d:86:4a:62:74:5d:d0:f8:08:b6:70:8b:80:
         6a:43:4f:76:b5:1d:47:a5:9d:a0:58:88:13:5b:54:f5:77:60:
         8c:a6:d7:b0:6a:dc:6f:bc:dc:20:23:c8:c9:25:29:25:07:5c:
         2c:82:dd:c8:8b:19:f3:4b:a6:85:1f:35:53:96:a4:9d:ca:e6:
         3e:0a:89:e0
-----BEGIN CERTIFICATE-----
MIIDbzCCAlegAwIBAgIRAKxPR1mTzjDM7Ex3vyqLPucwDQYJKoZIhvcNAQELBQAw
GzEZMBcGA1UEAwwQY2EudnBuLml3ZS5jbG91ZDAeFw0xODAzMjkxNzQ3NTlaFw0y
ODAzMjYxNzQ3NTlaMCwxKjAoBgNVBAMMIWU1MmEwN2RkYzcyZTRiMzViZWFhMjcx
ZDAzZDgyZjBlZjCCASIwDQYJKoZIhvcNAQEBBQADggEPADCCAQoCggEBALlCn/DL
kT+czGBlWajlUMS54k6s4ei0qDL8l4Oao9ekj+o2JL+B1+4N6eoSv3NX0WHpKIee
2AiKe1TYayqzPM1lIUh+u/RGDzXuAR1wWKcJ6M2S0rg+SV4H+kpzZJ+VQ091mqL8
4rGS9kih3TvhV0py+Nhuf2SLqjlclG7ZhZL8JUel8U+fA33pL5ojndlimQdWGo7S
Nf5e65i0BYf1Q/WMO/ndb8526i6OQaEHDf49q4HyQUIO/OCfbHTP+/+jrCbgVAZ5
ZiJyjEibx6csB44mAJmUvKxvXHl0h+42cpcTVu31IkcZICkF7Cj8vXMWETLTAzka
P0XmqOcfbsbgSb0CAwEAAaOBnDCBmTAJBgNVHRMEAjAAMB0GA1UdDgQWBBTKmZWq
olpmquP3gOw3rqzxFHUEIDBLBgNVHSMERDBCgBQOM4LeszKKp9uyx50oTfN7q6Ax
jKEfpB0wGzEZMBcGA1UEAwwQY2EudnBuLml3ZS5jbG91ZIIJAImkbRc3eCBmMBMG
A1UdJQQMMAoGCCsGAQUFBwMCMAsGA1UdDwQEAwIHgDANBgkqhkiG9w0BAQsFAAOC
AQEAkqvL2T44vRzJQbYMhdLWuXghIzC7o8pzRHfgGByoG6t5vsJgDzznqaNXMG4A
R5OxxcwY3qpGyusS3FNuKeC26hLE659JuR6aFblvwGqfAkivwOMnFoEQzMU/014k
XRXT9fZLPir+uzWCHiM380OObjuMZUaAKkEFlGUOx/Gi/8LtB5PJXSIrdIWnBdDa
NkX5Smajd9fTnfexonpBpIpgX2nbfnurCDr8Hd3okLwfx+7PcRgAXARRbZNthkpi
dF3Q+Ai2cIuAakNPdrUdR6WdoFiIE1tU9XdgjKbXsGrcb7zcICPIySUpJQdcLILd
yIsZ80umhR81U5akncrmPgqJ4A==
-----END CERTIFICATE-----
