Certificate:
    Data:
        Version: 3 (0x2)
        Serial Number:
            ac:4f:47:59:93:ce:30:cc:ec:4c:77:bf:2a:8b:3e:ed
    Signature Algorithm: sha256WithRSAEncryption
        Issuer: CN=ca.vpn.iwe.cloud
        Validity
            Not Before: Mar 29 17:54:27 2018 GMT
            Not After : Mar 26 17:54:27 2028 GMT
        Subject: CN=e52a07ddc72e4b35beaa271d03d82f0el
        Subject Public Key Info:
            Public Key Algorithm: rsaEncryption
                Public-Key: (2048 bit)
                Modulus:
                    00:a6:6f:a8:32:03:52:91:9b:cd:38:aa:6b:c7:77:
                    e0:99:ca:97:b6:e8:8b:f8:59:1a:db:03:48:d3:aa:
                    a6:26:c0:7e:4d:52:f4:be:0c:11:aa:c2:b7:56:88:
                    48:68:72:8a:dd:6b:ff:45:cc:6d:63:fe:57:8b:7c:
                    11:a3:ee:7d:00:88:a0:e4:32:2d:fb:2c:90:6b:90:
                    62:fa:6e:57:98:e1:a3:25:a8:19:44:fc:d3:a7:03:
                    c3:b7:7c:71:54:bf:f5:d6:34:67:ed:13:a9:71:c6:
                    f8:f6:15:81:cd:5a:22:62:f4:04:4b:7e:d1:25:e1:
                    55:b6:f2:e8:7f:2b:77:93:93:fa:cc:c5:e9:d4:b3:
                    5a:4c:93:1e:9e:9c:4f:6a:42:65:b7:68:43:64:47:
                    be:b2:c7:eb:ab:1d:8e:cf:32:27:62:fe:8e:9e:2b:
                    ba:b3:86:93:07:41:72:7e:94:5e:11:6d:c6:63:59:
                    13:a0:de:8b:e4:f8:a5:d0:88:9c:60:7a:49:07:c5:
                    c1:3a:24:4d:c8:8e:4f:20:6f:05:f0:73:b3:5a:45:
                    0a:e4:0b:d4:b8:72:2b:41:e1:da:c0:2f:10:04:15:
                    d2:34:36:f2:c9:59:75:6a:2c:d2:f1:57:a7:61:bf:
                    bb:75:4e:6d:bd:cd:04:48:4a:d7:e6:57:63:2b:f3:
                    f3:f7
                Exponent: 65537 (0x10001)
        X509v3 extensions:
            X509v3 Basic Constraints: 
                CA:FALSE
            X509v3 Subject Key Identifier: 
                64:22:C2:45:14:D0:04:BF:8E:8B:2C:4E:ED:0E:93:50:3A:44:0C:5E
            X509v3 Authority Key Identifier: 
                keyid:0E:33:82:DE:B3:32:8A:A7:DB:B2:C7:9D:28:4D:F3:7B:AB:A0:31:8C
                DirName:/CN=ca.vpn.iwe.cloud
                serial:89:A4:6D:17:37:78:20:66

            X509v3 Extended Key Usage: 
                TLS Web Client Authentication
            X509v3 Key Usage: 
                Digital Signature
    Signature Algorithm: sha256WithRSAEncryption
         7e:8f:90:ce:6e:b0:45:bb:fe:f4:68:f5:ce:9f:16:0c:24:b0:
         d8:57:34:1c:2c:bb:9e:d0:a0:5c:85:31:fb:97:99:7d:e2:f0:
         37:66:ad:40:95:05:bb:b1:77:01:93:6a:84:da:28:34:7f:19:
         97:06:24:10:63:35:26:99:ea:48:0f:62:4a:12:3c:3b:33:14:
         c5:b4:9e:76:d1:1c:3f:82:1a:cc:e8:bd:c0:42:c1:7c:3a:08:
         a5:2c:de:f6:4b:99:4e:8d:98:77:39:8f:f9:62:fd:86:56:b5:
         43:97:43:e9:0b:74:70:45:a9:c3:1a:3f:90:b8:b2:6e:b4:36:
         83:de:52:d7:25:74:ef:02:0a:10:07:6a:f6:00:58:dd:44:df:
         6c:95:b9:bc:9b:ac:18:75:9c:ee:19:eb:61:c7:6b:82:d9:81:
         03:c7:16:55:68:81:64:2b:40:a0:01:6e:f2:a8:22:63:fe:2a:
         11:5e:13:f3:e3:87:2c:f4:30:8e:47:49:e9:d0:81:89:ef:28:
         68:49:6a:65:0f:02:7a:3e:2c:de:3d:b0:f8:e7:ab:6d:50:c9:
         6c:6d:5f:38:61:de:87:e6:f8:2f:fb:7f:66:bd:c8:3d:d1:bf:
         86:15:25:7c:3b:63:0c:f8:d3:7f:98:08:c8:c8:57:e2:71:a6:
         3b:69:b9:7b
-----BEGIN CERTIFICATE-----
MIIDbzCCAlegAwIBAgIRAKxPR1mTzjDM7Ex3vyqLPu0wDQYJKoZIhvcNAQELBQAw
GzEZMBcGA1UEAwwQY2EudnBuLml3ZS5jbG91ZDAeFw0xODAzMjkxNzU0MjdaFw0y
ODAzMjYxNzU0MjdaMCwxKjAoBgNVBAMMIWU1MmEwN2RkYzcyZTRiMzViZWFhMjcx
ZDAzZDgyZjBlbDCCASIwDQYJKoZIhvcNAQEBBQADggEPADCCAQoCggEBAKZvqDID
UpGbzTiqa8d34JnKl7boi/hZGtsDSNOqpibAfk1S9L4MEarCt1aISGhyit1r/0XM
bWP+V4t8EaPufQCIoOQyLfsskGuQYvpuV5jhoyWoGUT806cDw7d8cVS/9dY0Z+0T
qXHG+PYVgc1aImL0BEt+0SXhVbby6H8rd5OT+szF6dSzWkyTHp6cT2pCZbdoQ2RH
vrLH66sdjs8yJ2L+jp4rurOGkwdBcn6UXhFtxmNZE6Dei+T4pdCInGB6SQfFwTok
TciOTyBvBfBzs1pFCuQL1LhyK0Hh2sAvEAQV0jQ28slZdWos0vFXp2G/u3VObb3N
BEhK1+ZXYyvz8/cCAwEAAaOBnDCBmTAJBgNVHRMEAjAAMB0GA1UdDgQWBBRkIsJF
FNAEv46LLE7tDpNQOkQMXjBLBgNVHSMERDBCgBQOM4LeszKKp9uyx50oTfN7q6Ax
jKEfpB0wGzEZMBcGA1UEAwwQY2EudnBuLml3ZS5jbG91ZIIJAImkbRc3eCBmMBMG
A1UdJQQMMAoGCCsGAQUFBwMCMAsGA1UdDwQEAwIHgDANBgkqhkiG9w0BAQsFAAOC
AQEAfo+Qzm6wRbv+9Gj1zp8WDCSw2Fc0HCy7ntCgXIUx+5eZfeLwN2atQJUFu7F3
AZNqhNooNH8ZlwYkEGM1JpnqSA9iShI8OzMUxbSedtEcP4IazOi9wELBfDoIpSze
9kuZTo2YdzmP+WL9hla1Q5dD6Qt0cEWpwxo/kLiybrQ2g95S1yV07wIKEAdq9gBY
3UTfbJW5vJusGHWc7hnrYcdrgtmBA8cWVWiBZCtAoAFu8qgiY/4qEV4T8+OHLPQw
jkdJ6dCBie8oaElqZQ8Cej4s3j2w+OerbVDJbG1fOGHeh+b4L/t/Zr3IPdG/hhUl
fDtjDPjTf5gIyMhX4nGmO2m5ew==
-----END CERTIFICATE-----
