Certificate:
    Data:
        Version: 3 (0x2)
        Serial Number:
            ac:4f:47:59:93:ce:30:cc:ec:4c:77:bf:2a:8b:3f:03
    Signature Algorithm: sha256WithRSAEncryption
        Issuer: CN=ca.vpn.iwe.cloud
        Validity
            Not Before: Mar 30 16:15:07 2018 GMT
            Not After : Mar 27 16:15:07 2028 GMT
        Subject: CN=9e040cb87e1f41a59c418345e2a423d4
        Subject Public Key Info:
            Public Key Algorithm: rsaEncryption
                Public-Key: (2048 bit)
                Modulus:
                    00:c9:64:c8:c9:6e:11:b3:3e:96:a1:b0:7b:31:14:
                    81:a0:1f:c1:eb:8c:d4:e6:d8:f3:a3:a0:f3:c7:c6:
                    55:6a:58:63:2c:f6:2b:ad:3d:7f:b3:78:e7:b8:9d:
                    d5:15:87:b7:e1:b3:30:11:b1:6f:65:f1:48:d3:1a:
                    df:98:29:06:88:83:81:ba:53:02:06:e9:95:da:2d:
                    1c:a4:63:01:de:7c:36:45:b3:06:91:69:30:2b:67:
                    ae:8a:61:4f:0a:0e:fe:8d:f2:32:a7:94:88:90:80:
                    42:ad:66:8c:7d:d7:70:fc:5d:d7:08:89:47:54:b4:
                    e2:7b:d3:14:e7:b2:6e:42:db:21:09:e6:b7:c8:84:
                    53:f4:1b:61:bf:cb:82:59:36:95:ac:e0:3d:e3:22:
                    0c:1f:16:f5:f8:f2:e5:f7:1b:d4:b4:16:9a:72:24:
                    b1:5b:39:d2:ee:f5:f2:59:e2:a2:2d:a8:be:98:f2:
                    e8:81:e1:94:3b:4c:8c:59:7b:59:ea:35:ee:d4:6a:
                    86:37:13:68:4e:47:25:eb:8b:0e:d9:79:0e:95:77:
                    d8:b0:db:cf:86:81:09:44:4d:35:96:99:03:bd:b4:
                    e1:4a:33:91:48:e5:eb:f6:b4:36:e3:03:6c:02:83:
                    d2:4b:e0:2a:97:2c:61:3e:dd:ad:86:38:f1:2d:53:
                    af:c7
                Exponent: 65537 (0x10001)
        X509v3 extensions:
            X509v3 Basic Constraints: 
                CA:FALSE
            X509v3 Subject Key Identifier: 
                8D:37:01:A1:98:2F:C7:89:9F:40:15:4B:84:F8:67:DD:3B:D7:A3:E8
            X509v3 Authority Key Identifier: 
                keyid:0E:33:82:DE:B3:32:8A:A7:DB:B2:C7:9D:28:4D:F3:7B:AB:A0:31:8C
                DirName:/CN=ca.vpn.iwe.cloud
                serial:89:A4:6D:17:37:78:20:66

            X509v3 Extended Key Usage: 
                TLS Web Client Authentication
            X509v3 Key Usage: 
                Digital Signature
    Signature Algorithm: sha256WithRSAEncryption
         6b:8a:c5:83:00:f6:d6:6a:c6:12:44:e5:75:cc:07:9d:2a:40:
         6d:b3:29:20:16:0b:62:a3:d6:f6:50:88:79:7f:62:04:6f:81:
         4b:40:e5:d2:bb:14:6d:24:37:a6:2d:67:4a:40:db:f0:a8:d1:
         d8:6a:18:54:1d:ce:d9:6c:a8:2e:ee:83:b0:dd:aa:bf:10:2d:
         78:41:4c:1e:04:26:ae:e5:ae:53:bc:4d:ab:ab:37:08:15:ab:
         8b:5b:70:41:ce:41:73:78:3e:5e:2f:14:af:90:86:10:4e:76:
         e5:08:75:aa:17:67:8d:b5:88:3e:2e:fb:b4:2b:f5:23:2b:a6:
         b9:6e:a7:df:87:28:15:13:f8:20:49:89:ff:d7:f3:fe:4c:ee:
         5d:f2:53:15:0c:df:35:ad:03:f1:a3:1a:fb:ce:98:86:5c:39:
         f0:e4:75:5e:0d:8a:79:9a:ae:bd:1f:f9:f8:45:04:fa:46:9c:
         e5:da:36:0f:9e:f8:27:e2:c3:46:9a:d8:a9:19:0e:2e:6d:df:
         2e:69:d8:2d:96:56:37:ef:e2:4d:c3:fb:77:3d:b3:91:a3:59:
         de:6c:3c:ed:63:0b:98:c9:95:ae:b2:f5:8a:7c:c3:af:69:ae:
         f9:7c:ff:51:82:7e:74:a3:4b:56:b1:ac:fe:0f:54:89:dd:2c:
         be:ba:cd:cf
-----BEGIN CERTIFICATE-----
MIIDbjCCAlagAwIBAgIRAKxPR1mTzjDM7Ex3vyqLPwMwDQYJKoZIhvcNAQELBQAw
GzEZMBcGA1UEAwwQY2EudnBuLml3ZS5jbG91ZDAeFw0xODAzMzAxNjE1MDdaFw0y
ODAzMjcxNjE1MDdaMCsxKTAnBgNVBAMMIDllMDQwY2I4N2UxZjQxYTU5YzQxODM0
NWUyYTQyM2Q0MIIBIjANBgkqhkiG9w0BAQEFAAOCAQ8AMIIBCgKCAQEAyWTIyW4R
sz6WobB7MRSBoB/B64zU5tjzo6Dzx8ZValhjLPYrrT1/s3jnuJ3VFYe34bMwEbFv
ZfFI0xrfmCkGiIOBulMCBumV2i0cpGMB3nw2RbMGkWkwK2euimFPCg7+jfIyp5SI
kIBCrWaMfddw/F3XCIlHVLTie9MU57JuQtshCea3yIRT9Bthv8uCWTaVrOA94yIM
Hxb1+PLl9xvUtBaaciSxWznS7vXyWeKiLai+mPLogeGUO0yMWXtZ6jXu1GqGNxNo
Tkcl64sO2XkOlXfYsNvPhoEJRE01lpkDvbThSjORSOXr9rQ24wNsAoPSS+Aqlyxh
Pt2thjjxLVOvxwIDAQABo4GcMIGZMAkGA1UdEwQCMAAwHQYDVR0OBBYEFI03AaGY
L8eJn0AVS4T4Z90716PoMEsGA1UdIwREMEKAFA4zgt6zMoqn27LHnShN83uroDGM
oR+kHTAbMRkwFwYDVQQDDBBjYS52cG4uaXdlLmNsb3VkggkAiaRtFzd4IGYwEwYD
VR0lBAwwCgYIKwYBBQUHAwIwCwYDVR0PBAQDAgeAMA0GCSqGSIb3DQEBCwUAA4IB
AQBrisWDAPbWasYSROV1zAedKkBtsykgFgtio9b2UIh5f2IEb4FLQOXSuxRtJDem
LWdKQNvwqNHYahhUHc7ZbKgu7oOw3aq/EC14QUweBCau5a5TvE2rqzcIFauLW3BB
zkFzeD5eLxSvkIYQTnblCHWqF2eNtYg+Lvu0K/UjK6a5bqffhygVE/ggSYn/1/P+
TO5d8lMVDN81rQPxoxr7zpiGXDnw5HVeDYp5mq69H/n4RQT6Rpzl2jYPnvgn4sNG
mtipGQ4ubd8uadgtllY37+JNw/t3PbORo1nebDztYwuYyZWusvWKfMOvaa75fP9R
gn50o0tWsaz+D1SJ3Sy+us3P
-----END CERTIFICATE-----
