Certificate:
    Data:
        Version: 3 (0x2)
        Serial Number:
            ac:4f:47:59:93:ce:30:cc:ec:4c:77:bf:2a:8b:3e:f5
    Signature Algorithm: sha256WithRSAEncryption
        Issuer: CN=ca.vpn.iwe.cloud
        Validity
            Not Before: Mar 29 18:30:28 2018 GMT
            Not After : Mar 26 18:30:28 2028 GMT
        Subject: CN=e52a07ddc72e4b35beaa271d03d82f0eu
        Subject Public Key Info:
            Public Key Algorithm: rsaEncryption
                Public-Key: (2048 bit)
                Modulus:
                    00:9c:86:99:30:a7:4c:77:13:12:a1:9b:24:76:55:
                    da:b5:96:61:45:a6:88:cf:d6:4e:6b:52:9b:95:ba:
                    23:16:14:a3:93:f7:cd:23:3f:a4:4f:08:a3:72:df:
                    7f:aa:ae:b2:a4:e5:94:ab:91:3e:f2:8d:1b:08:f3:
                    9f:04:ea:66:42:30:cb:93:86:0d:ce:9d:b6:0c:04:
                    96:29:eb:7b:89:a5:ac:20:a6:b7:62:8a:5b:22:f7:
                    ee:d9:05:21:f8:7b:f7:96:a2:a3:d2:ba:8c:92:46:
                    37:eb:1a:b7:8a:2b:d3:aa:03:3d:3f:80:a8:24:04:
                    7f:5e:14:36:66:c8:56:a6:bd:4d:a4:13:56:f4:03:
                    7b:4d:1d:19:9c:3e:72:d8:af:f2:a8:81:9f:8b:0d:
                    05:8b:f7:b4:07:fb:e9:27:f7:e2:25:df:1b:dc:d7:
                    ce:1f:0e:c7:be:fd:84:ca:b5:38:90:7c:a8:3c:ac:
                    72:04:79:bc:94:cb:b6:8d:4a:d4:aa:5d:4c:1f:73:
                    87:cc:50:9b:40:ff:dd:b2:72:7d:c7:21:70:75:dc:
                    8e:7b:b8:3e:62:9b:02:a9:45:aa:d1:e7:fa:df:72:
                    1f:96:9e:44:a0:5c:a8:07:b6:a8:c6:13:2d:fb:77:
                    c0:ad:56:38:06:d7:ec:0e:5d:8a:36:21:2c:6f:92:
                    fb:97
                Exponent: 65537 (0x10001)
        X509v3 extensions:
            X509v3 Basic Constraints: 
                CA:FALSE
            X509v3 Subject Key Identifier: 
                BB:D5:67:4E:66:8F:27:4D:BE:AA:4B:1B:0C:FF:4D:60:76:0A:55:39
            X509v3 Authority Key Identifier: 
                keyid:0E:33:82:DE:B3:32:8A:A7:DB:B2:C7:9D:28:4D:F3:7B:AB:A0:31:8C
                DirName:/CN=ca.vpn.iwe.cloud
                serial:89:A4:6D:17:37:78:20:66

            X509v3 Extended Key Usage: 
                TLS Web Client Authentication
            X509v3 Key Usage: 
                Digital Signature
    Signature Algorithm: sha256WithRSAEncryption
         36:72:2b:f8:26:1a:50:9a:d5:41:04:5f:0e:bc:7d:8e:7b:33:
         d4:59:b0:af:e8:b8:16:d2:64:dd:8e:8e:76:67:51:61:b1:ab:
         83:99:5e:13:c5:19:5e:f5:10:2e:99:f2:af:14:d4:2f:4c:53:
         57:5e:4f:da:32:38:8d:a0:25:84:f4:c0:ea:87:bd:63:76:39:
         b3:e7:80:cf:b2:53:5a:4a:7d:ed:4a:fb:9d:c1:10:68:52:b1:
         97:86:eb:a7:d2:e7:d5:1b:f5:3d:16:fc:00:90:a9:4a:9f:85:
         fe:07:5d:b3:52:73:eb:64:95:2d:9a:8b:4c:c0:64:26:39:5f:
         2c:fb:b1:88:0f:f4:2b:8e:92:1c:22:19:05:ed:04:d1:c8:b7:
         2b:87:47:9b:52:74:83:09:bd:84:5f:50:91:8b:1a:41:36:be:
         f1:a5:72:1e:f5:7c:ab:ae:4c:81:9f:4e:a2:6b:fe:25:ca:d8:
         e2:4d:e4:f8:6e:b5:c7:8c:c6:b0:c3:61:d0:a5:88:56:33:93:
         28:26:26:89:62:9e:0d:a6:d4:2b:02:1d:0b:4f:4d:7d:95:51:
         37:b2:a9:70:07:cb:64:10:7f:54:60:ce:91:6f:8d:70:ae:93:
         e3:3b:66:75:eb:a5:f5:9c:c9:70:6f:36:1e:2a:21:89:8c:b3:
         a0:78:eb:5d
-----BEGIN CERTIFICATE-----
MIIDbzCCAlegAwIBAgIRAKxPR1mTzjDM7Ex3vyqLPvUwDQYJKoZIhvcNAQELBQAw
GzEZMBcGA1UEAwwQY2EudnBuLml3ZS5jbG91ZDAeFw0xODAzMjkxODMwMjhaFw0y
ODAzMjYxODMwMjhaMCwxKjAoBgNVBAMMIWU1MmEwN2RkYzcyZTRiMzViZWFhMjcx
ZDAzZDgyZjBldTCCASIwDQYJKoZIhvcNAQEBBQADggEPADCCAQoCggEBAJyGmTCn
THcTEqGbJHZV2rWWYUWmiM/WTmtSm5W6IxYUo5P3zSM/pE8Io3Lff6qusqTllKuR
PvKNGwjznwTqZkIwy5OGDc6dtgwElinre4mlrCCmt2KKWyL37tkFIfh795aio9K6
jJJGN+sat4or06oDPT+AqCQEf14UNmbIVqa9TaQTVvQDe00dGZw+ctiv8qiBn4sN
BYv3tAf76Sf34iXfG9zXzh8Ox779hMq1OJB8qDyscgR5vJTLto1K1KpdTB9zh8xQ
m0D/3bJyfcchcHXcjnu4PmKbAqlFqtHn+t9yH5aeRKBcqAe2qMYTLft3wK1WOAbX
7A5dijYhLG+S+5cCAwEAAaOBnDCBmTAJBgNVHRMEAjAAMB0GA1UdDgQWBBS71WdO
Zo8nTb6qSxsM/01gdgpVOTBLBgNVHSMERDBCgBQOM4LeszKKp9uyx50oTfN7q6Ax
jKEfpB0wGzEZMBcGA1UEAwwQY2EudnBuLml3ZS5jbG91ZIIJAImkbRc3eCBmMBMG
A1UdJQQMMAoGCCsGAQUFBwMCMAsGA1UdDwQEAwIHgDANBgkqhkiG9w0BAQsFAAOC
AQEANnIr+CYaUJrVQQRfDrx9jnsz1Fmwr+i4FtJk3Y6OdmdRYbGrg5leE8UZXvUQ
LpnyrxTUL0xTV15P2jI4jaAlhPTA6oe9Y3Y5s+eAz7JTWkp97Ur7ncEQaFKxl4br
p9Ln1Rv1PRb8AJCpSp+F/gdds1Jz62SVLZqLTMBkJjlfLPuxiA/0K46SHCIZBe0E
0ci3K4dHm1J0gwm9hF9QkYsaQTa+8aVyHvV8q65MgZ9Oomv+JcrY4k3k+G61x4zG
sMNh0KWIVjOTKCYmiWKeDabUKwIdC09NfZVRN7KpcAfLZBB/VGDOkW+NcK6T4ztm
deul9ZzJcG82HiohiYyzoHjrXQ==
-----END CERTIFICATE-----
