Certificate:
    Data:
        Version: 3 (0x2)
        Serial Number:
            ac:4f:47:59:93:ce:30:cc:ec:4c:77:bf:2a:8b:3e:fc
    Signature Algorithm: sha256WithRSAEncryption
        Issuer: CN=ca.vpn.iwe.cloud
        Validity
            Not Before: Mar 29 20:32:55 2018 GMT
            Not After : Mar 26 20:32:55 2028 GMT
        Subject: CN=2070c14a0cc948f8910530d6149567fe
        Subject Public Key Info:
            Public Key Algorithm: rsaEncryption
                Public-Key: (2048 bit)
                Modulus:
                    00:b5:ce:c6:0c:d8:ea:89:cc:36:2d:b0:3d:ef:59:
                    b4:93:ec:c2:c1:e5:2d:cd:43:d7:6c:b6:dc:27:d1:
                    44:e8:bc:03:47:35:c7:b7:4f:9f:af:c6:e4:08:26:
                    35:7c:31:99:93:1a:51:57:77:ed:b7:96:6e:63:fe:
                    ea:31:46:ef:9e:aa:7d:50:31:ba:bc:f0:e5:13:c5:
                    35:65:9d:db:22:86:5f:eb:c9:45:ca:dd:6c:7c:74:
                    a2:88:8a:35:a8:30:91:17:7d:68:c0:bb:35:dd:34:
                    ef:18:91:53:4a:62:fb:34:99:67:11:53:e2:34:6f:
                    db:84:0a:a3:05:7d:7a:12:d1:5e:1a:b5:67:13:6e:
                    33:b0:f5:1d:bd:f4:de:b1:e3:a1:65:ca:57:c6:d6:
                    36:15:eb:f7:f4:09:6c:6f:3b:e0:4d:94:2d:c9:8a:
                    d8:12:3a:92:f9:fa:47:9e:77:c8:db:f9:94:50:42:
                    8a:4a:ea:18:53:b2:b7:d0:f3:22:e6:d7:25:fc:bf:
                    34:1b:77:4b:0a:d9:9b:96:84:39:4c:0e:9b:a1:fe:
                    77:32:00:2b:bc:d6:94:76:fc:46:14:16:2e:bd:4a:
                    ba:08:f9:87:a7:27:69:ee:39:34:23:79:2e:8e:70:
                    aa:c8:c7:67:82:c7:1e:47:1b:c5:f5:69:d8:fc:ed:
                    04:5b
                Exponent: 65537 (0x10001)
        X509v3 extensions:
            X509v3 Basic Constraints: 
                CA:FALSE
            X509v3 Subject Key Identifier: 
                F1:AE:71:02:4B:DD:07:3A:BC:F4:20:C9:52:E7:DA:A5:94:55:39:EA
            X509v3 Authority Key Identifier: 
                keyid:0E:33:82:DE:B3:32:8A:A7:DB:B2:C7:9D:28:4D:F3:7B:AB:A0:31:8C
                DirName:/CN=ca.vpn.iwe.cloud
                serial:89:A4:6D:17:37:78:20:66

            X509v3 Extended Key Usage: 
                TLS Web Client Authentication
            X509v3 Key Usage: 
                Digital Signature
    Signature Algorithm: sha256WithRSAEncryption
         2d:31:be:60:8b:30:27:30:92:7a:02:bb:90:55:6a:c1:20:fe:
         d1:aa:2f:d8:03:9b:a7:15:af:1f:6f:8a:50:44:2e:72:cc:fb:
         25:b1:95:6c:c3:c3:fc:82:bb:9c:c4:d9:5c:26:50:ec:1d:a1:
         ec:b9:0d:94:62:f2:64:36:61:62:16:f9:0c:fc:cd:cb:17:da:
         76:60:5d:e5:b1:34:54:15:d1:e2:a8:bf:70:6c:8a:6c:cd:5e:
         7d:b4:0a:ed:9c:d6:96:fe:49:37:a7:99:bc:7a:7b:93:f0:7c:
         9a:38:66:ac:3c:f8:2e:a9:e4:2c:9c:a6:f7:cf:45:86:a3:12:
         66:85:ba:fd:1c:41:2f:18:01:0e:09:cb:ba:75:cf:4f:11:88:
         3d:19:aa:85:be:74:e0:49:54:fd:f4:bf:8e:7e:c2:79:7d:c6:
         cf:1d:fd:d0:d2:e4:57:41:db:97:50:1d:3b:c3:94:87:bf:a6:
         cd:42:f6:fa:66:00:aa:3a:b3:04:6e:83:c2:d3:38:05:80:f1:
         51:13:dc:e6:92:59:a1:a0:0a:d6:3e:35:c7:e2:e7:ae:4e:4a:
         d5:99:32:53:db:68:25:22:09:f9:e8:80:2b:6c:c4:55:93:62:
         3d:04:6f:fe:48:8e:50:79:cf:85:bf:ca:85:0c:ee:b5:53:36:
         32:4a:30:46
-----BEGIN CERTIFICATE-----
MIIDbjCCAlagAwIBAgIRAKxPR1mTzjDM7Ex3vyqLPvwwDQYJKoZIhvcNAQELBQAw
GzEZMBcGA1UEAwwQY2EudnBuLml3ZS5jbG91ZDAeFw0xODAzMjkyMDMyNTVaFw0y
ODAzMjYyMDMyNTVaMCsxKTAnBgNVBAMMIDIwNzBjMTRhMGNjOTQ4Zjg5MTA1MzBk
NjE0OTU2N2ZlMIIBIjANBgkqhkiG9w0BAQEFAAOCAQ8AMIIBCgKCAQEAtc7GDNjq
icw2LbA971m0k+zCweUtzUPXbLbcJ9FE6LwDRzXHt0+fr8bkCCY1fDGZkxpRV3ft
t5ZuY/7qMUbvnqp9UDG6vPDlE8U1ZZ3bIoZf68lFyt1sfHSiiIo1qDCRF31owLs1
3TTvGJFTSmL7NJlnEVPiNG/bhAqjBX16EtFeGrVnE24zsPUdvfTeseOhZcpXxtY2
Fev39AlsbzvgTZQtyYrYEjqS+fpHnnfI2/mUUEKKSuoYU7K30PMi5tcl/L80G3dL
CtmbloQ5TA6bof53MgArvNaUdvxGFBYuvUq6CPmHpydp7jk0I3kujnCqyMdngsce
RxvF9WnY/O0EWwIDAQABo4GcMIGZMAkGA1UdEwQCMAAwHQYDVR0OBBYEFPGucQJL
3Qc6vPQgyVLn2qWUVTnqMEsGA1UdIwREMEKAFA4zgt6zMoqn27LHnShN83uroDGM
oR+kHTAbMRkwFwYDVQQDDBBjYS52cG4uaXdlLmNsb3VkggkAiaRtFzd4IGYwEwYD
VR0lBAwwCgYIKwYBBQUHAwIwCwYDVR0PBAQDAgeAMA0GCSqGSIb3DQEBCwUAA4IB
AQAtMb5gizAnMJJ6AruQVWrBIP7Rqi/YA5unFa8fb4pQRC5yzPslsZVsw8P8gruc
xNlcJlDsHaHsuQ2UYvJkNmFiFvkM/M3LF9p2YF3lsTRUFdHiqL9wbIpszV59tArt
nNaW/kk3p5m8enuT8HyaOGasPPguqeQsnKb3z0WGoxJmhbr9HEEvGAEOCcu6dc9P
EYg9GaqFvnTgSVT99L+OfsJ5fcbPHf3Q0uRXQduXUB07w5SHv6bNQvb6ZgCqOrME
boPC0zgFgPFRE9zmklmhoArWPjXH4ueuTkrVmTJT22glIgn56IArbMRVk2I9BG/+
SI5Qec+Fv8qFDO61UzYySjBG
-----END CERTIFICATE-----
