Certificate:
    Data:
        Version: 3 (0x2)
        Serial Number:
            ac:4f:47:59:93:ce:30:cc:ec:4c:77:bf:2a:8b:3e:d6
    Signature Algorithm: sha256WithRSAEncryption
        Issuer: CN=ca.vpn.iwe.cloud
        Validity
            Not Before: Mar  7 15:40:34 2018 GMT
            Not After : Mar  4 15:40:34 2028 GMT
        Subject: CN=05614207-ec47-4fc4-81a4-dd5fc17dd7aa
        Subject Public Key Info:
            Public Key Algorithm: rsaEncryption
                Public-Key: (2048 bit)
                Modulus:
                    00:98:be:49:f3:08:3b:9f:94:6a:26:82:6a:48:b5:
                    d9:f7:37:d5:b6:96:5b:36:5f:83:eb:5f:9a:88:68:
                    d8:c4:c6:06:83:a1:ab:6a:f9:a6:f7:71:91:9f:cb:
                    ea:74:1f:9e:75:e3:06:be:a9:09:91:63:5d:a2:b0:
                    70:77:0f:66:3b:e3:71:89:7a:9b:e6:9d:a5:7f:fe:
                    38:e4:a9:dc:a7:cd:11:a0:c6:ba:db:21:b5:c9:da:
                    22:30:1c:f0:c7:00:94:50:88:87:47:10:4c:f2:6f:
                    01:73:25:48:37:2e:15:3f:4c:31:0b:83:a5:12:04:
                    4c:3c:69:58:e6:f1:c9:31:a2:07:c0:de:a7:93:ef:
                    4e:ca:3d:9c:79:ab:c3:e7:96:40:83:f8:86:9c:ae:
                    e0:7d:30:e3:12:47:e2:66:37:cc:9e:df:a4:e3:c4:
                    ae:73:1e:ac:a5:a1:42:ce:da:d0:33:81:9d:bf:5f:
                    4b:2e:7c:9a:53:e3:3e:14:08:f5:1e:56:5b:79:17:
                    93:bd:28:cb:db:b9:b3:ce:5b:3c:97:51:99:ca:c5:
                    03:a5:3e:4c:49:bd:75:a2:7c:20:49:b7:02:86:2d:
                    81:cc:ef:20:43:fb:bc:02:3b:27:1e:cf:fc:6b:43:
                    cf:36:e0:b6:b0:10:7b:74:b3:3c:57:c5:c3:3c:6a:
                    0e:41
                Exponent: 65537 (0x10001)
        X509v3 extensions:
            X509v3 Basic Constraints: 
                CA:FALSE
            X509v3 Subject Key Identifier: 
                FD:56:A1:9D:79:5A:87:62:D2:FD:5C:ED:0B:86:F8:E1:7C:57:D5:3B
            X509v3 Authority Key Identifier: 
                keyid:0E:33:82:DE:B3:32:8A:A7:DB:B2:C7:9D:28:4D:F3:7B:AB:A0:31:8C
                DirName:/CN=ca.vpn.iwe.cloud
                serial:89:A4:6D:17:37:78:20:66

            X509v3 Extended Key Usage: 
                TLS Web Client Authentication
            X509v3 Key Usage: 
                Digital Signature
    Signature Algorithm: sha256WithRSAEncryption
         55:cb:53:0f:54:01:8d:22:18:11:83:75:7f:04:37:4a:5d:06:
         d7:8d:be:c9:12:ac:0f:29:5d:76:24:11:5e:db:10:92:8e:8a:
         27:b8:2d:a8:d6:d0:75:ac:bb:38:94:bd:4e:22:a7:81:8d:77:
         79:50:40:44:87:8d:56:fb:cb:5b:d9:f6:67:7f:da:91:6e:ab:
         6f:ea:60:a7:02:ad:a4:a1:c3:1f:37:33:b3:dc:d4:dc:ee:5c:
         d5:10:cd:db:7e:fb:78:a0:f0:88:ac:e5:f1:98:c3:e4:99:ad:
         dd:24:56:41:3c:97:d4:08:ae:b4:9d:2a:82:5d:26:7a:d2:25:
         8b:54:31:e5:97:be:4c:6f:a5:99:a8:02:d0:da:4b:f1:13:c1:
         9d:c9:73:d8:6c:2d:8f:0b:fd:54:97:5b:dc:f3:09:ed:98:b9:
         6a:56:51:1c:0a:94:97:51:d3:0f:e1:4d:d5:dc:1c:fd:34:ef:
         87:24:bd:6b:63:52:91:32:f1:0b:33:f7:35:9d:03:c3:df:af:
         b9:f5:bc:1a:e1:c7:0b:9d:d0:6c:94:c4:37:06:78:d1:41:d3:
         8a:15:c5:b2:05:97:80:60:f7:b1:1f:78:23:25:3f:0c:d3:8e:
         6f:90:e8:d9:3d:4f:97:92:0c:e9:dd:4c:c2:a2:45:74:81:00:
         ff:7f:df:de
-----BEGIN CERTIFICATE-----
MIIDcjCCAlqgAwIBAgIRAKxPR1mTzjDM7Ex3vyqLPtYwDQYJKoZIhvcNAQELBQAw
GzEZMBcGA1UEAwwQY2EudnBuLml3ZS5jbG91ZDAeFw0xODAzMDcxNTQwMzRaFw0y
ODAzMDQxNTQwMzRaMC8xLTArBgNVBAMMJDA1NjE0MjA3LWVjNDctNGZjNC04MWE0
LWRkNWZjMTdkZDdhYTCCASIwDQYJKoZIhvcNAQEBBQADggEPADCCAQoCggEBAJi+
SfMIO5+UaiaCaki12fc31baWWzZfg+tfmoho2MTGBoOhq2r5pvdxkZ/L6nQfnnXj
Br6pCZFjXaKwcHcPZjvjcYl6m+adpX/+OOSp3KfNEaDGutshtcnaIjAc8McAlFCI
h0cQTPJvAXMlSDcuFT9MMQuDpRIETDxpWObxyTGiB8Dep5PvTso9nHmrw+eWQIP4
hpyu4H0w4xJH4mY3zJ7fpOPErnMerKWhQs7a0DOBnb9fSy58mlPjPhQI9R5WW3kX
k70oy9u5s85bPJdRmcrFA6U+TEm9daJ8IEm3AoYtgczvIEP7vAI7Jx7P/GtDzzbg
trAQe3SzPFfFwzxqDkECAwEAAaOBnDCBmTAJBgNVHRMEAjAAMB0GA1UdDgQWBBT9
VqGdeVqHYtL9XO0LhvjhfFfVOzBLBgNVHSMERDBCgBQOM4LeszKKp9uyx50oTfN7
q6AxjKEfpB0wGzEZMBcGA1UEAwwQY2EudnBuLml3ZS5jbG91ZIIJAImkbRc3eCBm
MBMGA1UdJQQMMAoGCCsGAQUFBwMCMAsGA1UdDwQEAwIHgDANBgkqhkiG9w0BAQsF
AAOCAQEAVctTD1QBjSIYEYN1fwQ3Sl0G142+yRKsDylddiQRXtsQko6KJ7gtqNbQ
day7OJS9TiKngY13eVBARIeNVvvLW9n2Z3/akW6rb+pgpwKtpKHDHzczs9zU3O5c
1RDN2377eKDwiKzl8ZjD5Jmt3SRWQTyX1AiutJ0qgl0metIli1Qx5Ze+TG+lmagC
0NpL8RPBnclz2Gwtjwv9VJdb3PMJ7Zi5alZRHAqUl1HTD+FN1dwc/TTvhyS9a2NS
kTLxCzP3NZ0Dw9+vufW8GuHHC53QbJTENwZ40UHTihXFsgWXgGD3sR94IyU/DNOO
b5Do2T1Pl5IM6d1MwqJFdIEA/3/f3g==
-----END CERTIFICATE-----
