Certificate:
    Data:
        Version: 3 (0x2)
        Serial Number:
            ac:4f:47:59:93:ce:30:cc:ec:4c:77:bf:2a:8b:3e:e4
    Signature Algorithm: sha256WithRSAEncryption
        Issuer: CN=ca.vpn.iwe.cloud
        Validity
            Not Before: Mar 29 17:45:35 2018 GMT
            Not After : Mar 26 17:45:35 2028 GMT
        Subject: CN=e52a07ddc72e4b35beaa271d03d82f0ec
        Subject Public Key Info:
            Public Key Algorithm: rsaEncryption
                Public-Key: (2048 bit)
                Modulus:
                    00:c2:c2:06:cc:94:cf:45:f1:95:38:25:95:09:c4:
                    16:3a:c7:bc:de:ee:a2:76:14:d6:95:b3:b7:40:f2:
                    d8:e2:bc:db:be:79:aa:45:dd:af:0e:d5:c0:f2:73:
                    1d:f0:f7:eb:1e:0a:f0:0d:4f:aa:63:4f:62:96:82:
                    bc:0b:52:36:04:d3:43:c8:05:5d:76:9f:14:93:e0:
                    e4:f6:59:7c:8d:12:96:8f:8f:0b:4a:47:f7:53:17:
                    24:b1:d7:4a:86:f2:21:63:e2:b0:e3:04:1e:3c:e6:
                    05:4b:9e:6c:2e:e0:ef:ee:7d:2b:67:a0:8a:e6:b6:
                    27:f7:e2:52:42:f5:0e:ea:00:f2:47:70:1f:33:42:
                    01:59:4c:0b:53:30:85:7c:bf:9c:bf:a6:24:29:b6:
                    92:3a:e1:c5:06:80:62:e6:8a:00:26:3c:2f:1f:88:
                    87:95:97:61:91:79:6e:08:d7:a3:66:d2:09:90:9a:
                    0d:96:6a:02:00:8a:58:c1:28:35:cd:ba:a8:64:98:
                    7e:f5:be:52:32:04:3f:10:4d:4a:f3:c8:9d:9f:59:
                    c5:78:3a:3a:be:82:1a:18:05:48:ce:36:8c:4a:ad:
                    6b:be:97:89:0c:79:dc:e5:b3:19:50:04:de:f4:42:
                    69:01:97:19:7c:a0:be:6d:a3:7b:72:7a:6a:12:a0:
                    ad:1f
                Exponent: 65537 (0x10001)
        X509v3 extensions:
            X509v3 Basic Constraints: 
                CA:FALSE
            X509v3 Subject Key Identifier: 
                E2:54:05:E5:6D:32:B2:39:18:7C:DC:01:F8:76:A4:DB:FC:27:71:85
            X509v3 Authority Key Identifier: 
                keyid:0E:33:82:DE:B3:32:8A:A7:DB:B2:C7:9D:28:4D:F3:7B:AB:A0:31:8C
                DirName:/CN=ca.vpn.iwe.cloud
                serial:89:A4:6D:17:37:78:20:66

            X509v3 Extended Key Usage: 
                TLS Web Client Authentication
            X509v3 Key Usage: 
                Digital Signature
    Signature Algorithm: sha256WithRSAEncryption
         07:76:ce:ab:1b:5f:fd:74:d9:d9:b6:56:80:4f:02:a1:ff:56:
         46:a8:8c:92:6f:7d:82:c6:60:d9:07:ba:1d:78:91:68:f0:03:
         f0:da:be:da:ca:22:17:b9:31:d3:5a:b9:d4:b9:dc:ba:10:4b:
         1a:8a:cb:7e:32:02:1f:be:be:55:37:8b:9a:06:c2:14:ef:f2:
         b6:4b:25:48:c2:7d:fc:c4:ed:74:b5:8a:fd:eb:76:bf:8c:06:
         eb:7e:10:09:83:23:22:bc:8d:ef:19:4f:51:8b:16:67:e0:2a:
         76:50:18:e4:23:3d:5d:e5:1d:22:69:3d:6e:b6:7e:c6:a1:19:
         8b:3a:9f:13:47:3a:9e:68:94:4b:32:e2:93:09:fe:9f:11:12:
         8b:13:4a:cc:b1:f8:ba:21:8b:a3:b1:25:89:a3:99:ee:2b:d0:
         c2:ec:a5:3a:b0:e3:94:64:47:cf:05:da:8f:e0:dc:80:3f:5c:
         a2:c2:70:b1:25:00:6c:f3:61:b6:f0:62:d9:ed:e9:6e:25:0b:
         28:2b:04:77:0b:5c:df:5d:02:7a:56:b2:26:72:ab:a8:5c:bc:
         f0:71:a1:ac:a8:be:ac:e1:3b:dc:b0:7b:e5:ec:41:7a:64:a9:
         a4:9c:6b:a9:f2:88:1b:55:dd:61:77:c6:bc:d9:ce:af:16:84:
         c3:0b:49:43
-----BEGIN CERTIFICATE-----
MIIDbzCCAlegAwIBAgIRAKxPR1mTzjDM7Ex3vyqLPuQwDQYJKoZIhvcNAQELBQAw
GzEZMBcGA1UEAwwQY2EudnBuLml3ZS5jbG91ZDAeFw0xODAzMjkxNzQ1MzVaFw0y
ODAzMjYxNzQ1MzVaMCwxKjAoBgNVBAMMIWU1MmEwN2RkYzcyZTRiMzViZWFhMjcx
ZDAzZDgyZjBlYzCCASIwDQYJKoZIhvcNAQEBBQADggEPADCCAQoCggEBAMLCBsyU
z0XxlTgllQnEFjrHvN7uonYU1pWzt0Dy2OK82755qkXdrw7VwPJzHfD36x4K8A1P
qmNPYpaCvAtSNgTTQ8gFXXafFJPg5PZZfI0Slo+PC0pH91MXJLHXSobyIWPisOME
HjzmBUuebC7g7+59K2egiua2J/fiUkL1DuoA8kdwHzNCAVlMC1MwhXy/nL+mJCm2
kjrhxQaAYuaKACY8Lx+Ih5WXYZF5bgjXo2bSCZCaDZZqAgCKWMEoNc26qGSYfvW+
UjIEPxBNSvPInZ9ZxXg6Or6CGhgFSM42jEqta76XiQx53OWzGVAE3vRCaQGXGXyg
vm2je3J6ahKgrR8CAwEAAaOBnDCBmTAJBgNVHRMEAjAAMB0GA1UdDgQWBBTiVAXl
bTKyORh83AH4dqTb/CdxhTBLBgNVHSMERDBCgBQOM4LeszKKp9uyx50oTfN7q6Ax
jKEfpB0wGzEZMBcGA1UEAwwQY2EudnBuLml3ZS5jbG91ZIIJAImkbRc3eCBmMBMG
A1UdJQQMMAoGCCsGAQUFBwMCMAsGA1UdDwQEAwIHgDANBgkqhkiG9w0BAQsFAAOC
AQEAB3bOqxtf/XTZ2bZWgE8Cof9WRqiMkm99gsZg2Qe6HXiRaPAD8Nq+2soiF7kx
01q51LncuhBLGorLfjICH76+VTeLmgbCFO/ytkslSMJ9/MTtdLWK/et2v4wG634Q
CYMjIryN7xlPUYsWZ+AqdlAY5CM9XeUdImk9brZ+xqEZizqfE0c6nmiUSzLikwn+
nxESixNKzLH4uiGLo7EliaOZ7ivQwuylOrDjlGRHzwXaj+DcgD9cosJwsSUAbPNh
tvBi2e3pbiULKCsEdwtc310CelayJnKrqFy88HGhrKi+rOE73LB75exBemSppJxr
qfKIG1XdYXfGvNnOrxaEwwtJQw==
-----END CERTIFICATE-----
