Certificate:
    Data:
        Version: 3 (0x2)
        Serial Number:
            ac:4f:47:59:93:ce:30:cc:ec:4c:77:bf:2a:8b:3e:e8
    Signature Algorithm: sha256WithRSAEncryption
        Issuer: CN=ca.vpn.iwe.cloud
        Validity
            Not Before: Mar 29 17:50:57 2018 GMT
            Not After : Mar 26 17:50:57 2028 GMT
        Subject: CN=e52a07ddc72e4b35beaa271d03d82f0eg
        Subject Public Key Info:
            Public Key Algorithm: rsaEncryption
                Public-Key: (2048 bit)
                Modulus:
                    00:b6:51:e7:52:54:80:e5:91:cd:e9:3e:88:5f:1d:
                    20:a2:81:e2:c4:0e:6b:79:71:0f:6f:82:9c:6b:de:
                    dc:f0:33:0f:8e:05:a5:da:cf:c6:3c:ec:0f:09:15:
                    c1:91:db:88:f4:bf:d6:bc:0b:64:cc:c6:67:e2:60:
                    dd:68:f7:b7:c5:80:75:ad:53:3f:dd:24:26:e3:8f:
                    86:4e:f7:55:fc:21:a9:e1:a3:24:3b:2c:5f:27:6d:
                    5a:b9:0f:b1:9a:22:f2:ef:80:c5:39:2d:5e:17:fc:
                    ee:e4:d9:98:89:d2:31:76:be:11:fc:41:3d:21:2f:
                    36:aa:dc:0c:af:e6:5c:55:09:98:b2:b6:bc:01:f7:
                    5e:35:37:90:3d:87:d3:46:fe:d3:e8:93:32:50:12:
                    5f:b6:bd:fa:66:e9:2e:4d:84:ed:45:3e:c9:f5:57:
                    dd:07:f5:a0:7c:ca:67:06:13:db:6e:b1:67:82:ce:
                    26:44:91:b2:69:63:44:ad:3a:1b:12:7c:3b:b9:a9:
                    3d:52:e8:f2:27:e2:c2:e5:ea:1a:b1:34:8e:a8:ad:
                    28:cb:4b:b6:97:6c:1c:d9:76:be:65:f2:55:8a:04:
                    29:36:89:8f:96:63:a3:86:c9:de:db:0f:30:4d:fd:
                    51:bd:e0:87:11:5b:50:53:ad:d3:ed:ad:31:be:2b:
                    88:c9
                Exponent: 65537 (0x10001)
        X509v3 extensions:
            X509v3 Basic Constraints: 
                CA:FALSE
            X509v3 Subject Key Identifier: 
                35:54:56:D6:F4:03:90:9F:02:77:3C:65:20:B5:AE:A3:DB:EE:8A:78
            X509v3 Authority Key Identifier: 
                keyid:0E:33:82:DE:B3:32:8A:A7:DB:B2:C7:9D:28:4D:F3:7B:AB:A0:31:8C
                DirName:/CN=ca.vpn.iwe.cloud
                serial:89:A4:6D:17:37:78:20:66

            X509v3 Extended Key Usage: 
                TLS Web Client Authentication
            X509v3 Key Usage: 
                Digital Signature
    Signature Algorithm: sha256WithRSAEncryption
         27:23:40:df:81:4a:b1:c7:55:51:f2:f7:e5:85:91:3a:db:b2:
         3a:0c:35:65:17:88:aa:bb:a4:ee:c4:29:43:6f:a9:a7:56:0e:
         97:48:40:14:93:54:fc:40:85:17:dd:86:bd:b3:2c:1b:b0:da:
         c3:43:74:62:26:0e:d5:95:f7:21:8a:e6:bf:95:04:3a:16:41:
         f5:2b:14:e0:52:19:82:c9:88:60:39:ce:eb:83:fc:ab:7f:8b:
         e4:f4:b7:8e:63:7d:3f:ce:06:08:85:f6:42:b3:25:0c:ab:8b:
         03:72:d8:e1:58:03:4d:39:a7:97:d0:42:c5:7d:6e:b7:ea:35:
         b3:74:ab:4b:a5:7e:0e:9b:88:79:df:e1:6a:6d:6d:eb:2f:9f:
         9e:72:42:c6:0f:90:06:e3:c8:db:21:c5:ef:80:60:41:28:d1:
         f8:cc:44:07:71:1b:06:39:c4:8e:81:ab:48:b7:44:2e:9f:83:
         f1:e2:86:40:3b:f5:d0:d2:d5:7e:ff:f3:dc:ed:a9:a8:3d:37:
         e4:b9:14:be:b0:88:23:4c:6a:f8:51:2c:ee:4b:4b:d2:08:c6:
         ff:f4:d2:41:a9:32:fd:c8:3b:44:78:cc:6b:4c:88:0f:2c:d2:
         39:bf:dd:f9:01:3f:36:24:ae:e6:31:5e:fc:ef:36:ed:8b:54:
         62:a4:06:fb
-----BEGIN CERTIFICATE-----
MIIDbzCCAlegAwIBAgIRAKxPR1mTzjDM7Ex3vyqLPugwDQYJKoZIhvcNAQELBQAw
GzEZMBcGA1UEAwwQY2EudnBuLml3ZS5jbG91ZDAeFw0xODAzMjkxNzUwNTdaFw0y
ODAzMjYxNzUwNTdaMCwxKjAoBgNVBAMMIWU1MmEwN2RkYzcyZTRiMzViZWFhMjcx
ZDAzZDgyZjBlZzCCASIwDQYJKoZIhvcNAQEBBQADggEPADCCAQoCggEBALZR51JU
gOWRzek+iF8dIKKB4sQOa3lxD2+CnGve3PAzD44FpdrPxjzsDwkVwZHbiPS/1rwL
ZMzGZ+Jg3Wj3t8WAda1TP90kJuOPhk73VfwhqeGjJDssXydtWrkPsZoi8u+AxTkt
Xhf87uTZmInSMXa+EfxBPSEvNqrcDK/mXFUJmLK2vAH3XjU3kD2H00b+0+iTMlAS
X7a9+mbpLk2E7UU+yfVX3Qf1oHzKZwYT226xZ4LOJkSRsmljRK06GxJ8O7mpPVLo
8ifiwuXqGrE0jqitKMtLtpdsHNl2vmXyVYoEKTaJj5Zjo4bJ3tsPME39Ub3ghxFb
UFOt0+2tMb4riMkCAwEAAaOBnDCBmTAJBgNVHRMEAjAAMB0GA1UdDgQWBBQ1VFbW
9AOQnwJ3PGUgta6j2+6KeDBLBgNVHSMERDBCgBQOM4LeszKKp9uyx50oTfN7q6Ax
jKEfpB0wGzEZMBcGA1UEAwwQY2EudnBuLml3ZS5jbG91ZIIJAImkbRc3eCBmMBMG
A1UdJQQMMAoGCCsGAQUFBwMCMAsGA1UdDwQEAwIHgDANBgkqhkiG9w0BAQsFAAOC
AQEAJyNA34FKscdVUfL35YWROtuyOgw1ZReIqruk7sQpQ2+pp1YOl0hAFJNU/ECF
F92GvbMsG7Daw0N0YiYO1ZX3IYrmv5UEOhZB9SsU4FIZgsmIYDnO64P8q3+L5PS3
jmN9P84GCIX2QrMlDKuLA3LY4VgDTTmnl9BCxX1ut+o1s3SrS6V+DpuIed/ham1t
6y+fnnJCxg+QBuPI2yHF74BgQSjR+MxEB3EbBjnEjoGrSLdELp+D8eKGQDv10NLV
fv/z3O2pqD035LkUvrCII0xq+FEs7ktL0gjG//TSQaky/cg7RHjMa0yIDyzSOb/d
+QE/NiSu5jFe/O827YtUYqQG+w==
-----END CERTIFICATE-----
