Certificate:
    Data:
        Version: 3 (0x2)
        Serial Number:
            ac:4f:47:59:93:ce:30:cc:ec:4c:77:bf:2a:8b:3e:d9
    Signature Algorithm: sha256WithRSAEncryption
        Issuer: CN=ca.vpn.iwe.cloud
        Validity
            Not Before: Mar  7 16:45:27 2018 GMT
            Not After : Mar  4 16:45:27 2028 GMT
        Subject: CN=8f0216de-d6c0-4d8d-ae0f-1b9231312534
        Subject Public Key Info:
            Public Key Algorithm: rsaEncryption
                Public-Key: (2048 bit)
                Modulus:
                    00:b7:f3:6e:ce:51:a2:b0:a5:9f:04:1f:4f:53:32:
                    0f:c8:53:c5:93:8d:88:94:9e:87:9f:10:d0:ed:52:
                    14:fe:f3:24:cd:23:67:25:24:10:03:35:93:3c:d8:
                    b2:72:86:79:31:f7:e2:84:1b:96:1e:6f:3c:d1:50:
                    db:cd:3c:7f:14:11:8d:73:d2:98:44:39:2e:02:e2:
                    c2:eb:69:42:5a:56:56:21:e0:44:2e:6f:8f:ff:16:
                    56:a0:56:51:29:4d:02:df:05:18:f4:be:9a:1a:ff:
                    c6:2d:3f:82:08:47:56:2c:0a:3f:e2:97:c3:6b:9a:
                    9b:44:28:e7:56:1b:69:12:7c:55:4c:b8:39:ab:92:
                    36:2f:9b:fd:ae:21:05:65:67:53:d0:a3:28:d6:db:
                    0e:07:96:28:26:09:26:d7:d1:ce:48:55:b8:8d:b1:
                    23:c4:85:8d:90:0c:22:22:3d:6c:c8:57:d4:f6:f3:
                    75:86:52:28:6c:ea:74:97:ec:f7:e2:f0:58:db:04:
                    22:8d:ea:14:9d:d7:1a:40:04:6f:2a:4d:7e:4b:4c:
                    1b:4a:96:2e:c4:56:b8:af:bd:8d:66:21:f1:cd:2a:
                    62:7a:28:0a:7f:97:83:fd:e4:01:bf:b5:12:39:13:
                    d2:c2:39:03:4e:07:71:dc:bf:5d:cd:ae:02:b9:5c:
                    84:17
                Exponent: 65537 (0x10001)
        X509v3 extensions:
            X509v3 Basic Constraints: 
                CA:FALSE
            X509v3 Subject Key Identifier: 
                C9:55:9B:45:10:48:3F:8F:31:84:50:64:EB:03:6B:A3:FE:60:21:E8
            X509v3 Authority Key Identifier: 
                keyid:0E:33:82:DE:B3:32:8A:A7:DB:B2:C7:9D:28:4D:F3:7B:AB:A0:31:8C
                DirName:/CN=ca.vpn.iwe.cloud
                serial:89:A4:6D:17:37:78:20:66

            X509v3 Extended Key Usage: 
                TLS Web Client Authentication
            X509v3 Key Usage: 
                Digital Signature
    Signature Algorithm: sha256WithRSAEncryption
         32:96:7c:c9:3b:c8:52:8a:62:e0:82:f0:a0:9b:c8:cf:8f:26:
         6b:c2:d5:a4:db:d8:1c:bd:5a:75:9d:7c:ad:fc:00:e4:8b:3d:
         4a:b0:bf:a0:bd:cf:4f:a9:69:36:40:3c:f2:74:ca:74:28:23:
         35:7b:b7:0a:84:05:f3:b9:05:fa:43:5e:ea:7b:ff:45:34:cc:
         c5:c4:2a:26:2e:b4:69:85:d7:aa:8b:26:aa:97:ad:91:eb:2c:
         8d:e2:45:31:d1:31:3e:8c:d0:8a:42:02:8d:37:6e:25:a7:ad:
         85:b3:c7:82:5b:3b:9a:1c:17:a2:22:82:66:06:9c:7b:e9:0e:
         3e:e5:eb:9e:fe:1d:09:38:b6:22:6b:ba:a8:70:fa:c5:b1:14:
         10:c9:68:ae:25:c2:42:2d:46:61:bc:2a:12:6b:f4:61:a9:dd:
         3c:38:8b:17:ab:b5:b4:00:2a:8e:72:65:d3:23:15:a8:c6:19:
         dd:70:ff:ae:74:35:39:d0:6a:68:bd:9b:7a:e3:58:b3:86:51:
         7d:37:32:73:73:bc:a8:b1:be:0d:26:0f:3e:c4:e2:2e:ac:79:
         3f:70:e1:9a:5f:19:19:fd:e4:33:95:f1:13:19:51:71:05:37:
         54:61:00:b3:b4:f2:04:f3:a1:49:16:3e:68:15:60:f2:8d:ad:
         a2:69:8f:0e
-----BEGIN CERTIFICATE-----
MIIDcjCCAlqgAwIBAgIRAKxPR1mTzjDM7Ex3vyqLPtkwDQYJKoZIhvcNAQELBQAw
GzEZMBcGA1UEAwwQY2EudnBuLml3ZS5jbG91ZDAeFw0xODAzMDcxNjQ1MjdaFw0y
ODAzMDQxNjQ1MjdaMC8xLTArBgNVBAMMJDhmMDIxNmRlLWQ2YzAtNGQ4ZC1hZTBm
LTFiOTIzMTMxMjUzNDCCASIwDQYJKoZIhvcNAQEBBQADggEPADCCAQoCggEBALfz
bs5RorClnwQfT1MyD8hTxZONiJSeh58Q0O1SFP7zJM0jZyUkEAM1kzzYsnKGeTH3
4oQblh5vPNFQ2808fxQRjXPSmEQ5LgLiwutpQlpWViHgRC5vj/8WVqBWUSlNAt8F
GPS+mhr/xi0/gghHViwKP+KXw2uam0Qo51YbaRJ8VUy4OauSNi+b/a4hBWVnU9Cj
KNbbDgeWKCYJJtfRzkhVuI2xI8SFjZAMIiI9bMhX1PbzdYZSKGzqdJfs9+LwWNsE
Io3qFJ3XGkAEbypNfktMG0qWLsRWuK+9jWYh8c0qYnooCn+Xg/3kAb+1EjkT0sI5
A04Hcdy/Xc2uArlchBcCAwEAAaOBnDCBmTAJBgNVHRMEAjAAMB0GA1UdDgQWBBTJ
VZtFEEg/jzGEUGTrA2uj/mAh6DBLBgNVHSMERDBCgBQOM4LeszKKp9uyx50oTfN7
q6AxjKEfpB0wGzEZMBcGA1UEAwwQY2EudnBuLml3ZS5jbG91ZIIJAImkbRc3eCBm
MBMGA1UdJQQMMAoGCCsGAQUFBwMCMAsGA1UdDwQEAwIHgDANBgkqhkiG9w0BAQsF
AAOCAQEAMpZ8yTvIUopi4ILwoJvIz48ma8LVpNvYHL1adZ18rfwA5Is9SrC/oL3P
T6lpNkA88nTKdCgjNXu3CoQF87kF+kNe6nv/RTTMxcQqJi60aYXXqosmqpetkess
jeJFMdExPozQikICjTduJaethbPHgls7mhwXoiKCZgace+kOPuXrnv4dCTi2Imu6
qHD6xbEUEMloriXCQi1GYbwqEmv0YandPDiLF6u1tAAqjnJl0yMVqMYZ3XD/rnQ1
OdBqaL2beuNYs4ZRfTcyc3O8qLG+DSYPPsTiLqx5P3Dhml8ZGf3kM5XxExlRcQU3
VGEAs7TyBPOhSRY+aBVg8o2tommPDg==
-----END CERTIFICATE-----
