Certificate:
    Data:
        Version: 3 (0x2)
        Serial Number:
            ac:4f:47:59:93:ce:30:cc:ec:4c:77:bf:2a:8b:3e:f9
    Signature Algorithm: sha256WithRSAEncryption
        Issuer: CN=ca.vpn.iwe.cloud
        Validity
            Not Before: Mar 29 19:58:22 2018 GMT
            Not After : Mar 26 19:58:22 2028 GMT
        Subject: CN=193dd89d6e67435882e2db2d5bb36bb3
        Subject Public Key Info:
            Public Key Algorithm: rsaEncryption
                Public-Key: (2048 bit)
                Modulus:
                    00:a0:e3:32:56:20:65:53:71:1f:55:1f:2c:78:e3:
                    87:91:76:15:55:fb:f4:a4:1f:29:2f:13:90:41:05:
                    24:53:92:af:37:a1:8b:fe:0c:54:92:47:3e:03:e5:
                    94:33:50:79:b4:0b:63:1a:0b:54:79:8b:68:71:46:
                    ab:bc:96:47:7d:3b:02:ba:92:f4:e1:62:7f:31:49:
                    9e:3b:fd:d5:91:b0:26:03:c0:56:c3:0c:ef:74:d0:
                    93:f0:ab:ca:9e:ce:e1:32:6a:74:9e:47:fa:1f:86:
                    7b:a8:35:fd:c1:c2:c6:33:5f:a0:e9:09:d6:de:89:
                    ef:8d:92:4c:b3:4a:6f:91:cd:ea:7e:36:eb:19:fa:
                    21:c1:94:2a:27:a8:b7:26:61:0d:ac:51:51:31:71:
                    86:8f:1d:20:d0:f2:cf:40:5f:05:ea:ab:b8:3e:c2:
                    70:a5:d0:8b:9d:31:f1:46:a1:8b:87:1b:be:d1:f2:
                    8d:19:f8:72:09:41:32:f2:6c:b7:45:c0:36:61:64:
                    51:99:98:67:98:f7:81:08:3e:4f:da:b9:f4:96:5b:
                    07:a5:e7:df:f7:ee:4d:18:08:41:88:cf:de:2a:90:
                    3c:2c:a4:01:63:b8:c6:51:12:9e:33:2c:22:22:78:
                    81:b5:58:7c:5c:ad:7b:5c:07:08:d4:0a:08:cb:d1:
                    fa:35
                Exponent: 65537 (0x10001)
        X509v3 extensions:
            X509v3 Basic Constraints: 
                CA:FALSE
            X509v3 Subject Key Identifier: 
                7F:A6:9C:B3:C0:00:D1:9D:15:5A:EA:95:76:6B:92:9C:1F:10:52:9B
            X509v3 Authority Key Identifier: 
                keyid:0E:33:82:DE:B3:32:8A:A7:DB:B2:C7:9D:28:4D:F3:7B:AB:A0:31:8C
                DirName:/CN=ca.vpn.iwe.cloud
                serial:89:A4:6D:17:37:78:20:66

            X509v3 Extended Key Usage: 
                TLS Web Client Authentication
            X509v3 Key Usage: 
                Digital Signature
    Signature Algorithm: sha256WithRSAEncryption
         2e:74:e3:cb:d0:12:ac:c0:87:39:18:3f:e6:83:04:dc:d9:44:
         bf:d5:04:af:06:a5:ea:30:1d:ca:01:c4:53:df:07:7a:3e:98:
         0a:8e:14:46:bb:43:ff:e1:94:4c:f2:bf:10:e3:bd:59:ec:e7:
         1c:bf:4a:84:bb:03:6b:56:5a:1b:5b:c8:e2:a8:f5:83:c4:df:
         84:67:06:6f:79:3b:97:e1:74:25:47:4e:25:34:0d:8a:3d:cc:
         99:bb:ed:a2:4f:dc:29:b3:2b:5e:0f:c7:95:71:72:fa:6a:ad:
         d1:97:4f:3f:9a:59:21:8f:c9:05:34:2d:39:bf:af:3b:4a:ec:
         47:d4:ba:77:b2:e7:62:b2:8e:37:00:2d:1a:68:eb:eb:31:ff:
         88:46:b5:f5:8c:9f:69:19:bf:f2:01:c7:e6:69:83:5b:27:66:
         17:66:d4:73:e6:cb:b6:c6:dc:21:4c:7b:2d:50:54:e0:2e:32:
         be:66:2b:fc:3a:a0:2a:b3:75:aa:9c:a3:49:b4:8d:1c:6b:57:
         9a:d3:a2:1d:fd:53:19:fd:5a:58:b1:73:67:0c:69:d6:ef:a8:
         ac:bc:b9:73:0f:06:e8:c1:8c:8a:45:8a:32:88:d3:53:33:e7:
         19:ce:cc:9b:21:9f:e2:10:cb:e6:12:db:a3:04:d5:ec:da:13:
         67:d5:78:ba
-----BEGIN CERTIFICATE-----
MIIDbjCCAlagAwIBAgIRAKxPR1mTzjDM7Ex3vyqLPvkwDQYJKoZIhvcNAQELBQAw
GzEZMBcGA1UEAwwQY2EudnBuLml3ZS5jbG91ZDAeFw0xODAzMjkxOTU4MjJaFw0y
ODAzMjYxOTU4MjJaMCsxKTAnBgNVBAMMIDE5M2RkODlkNmU2NzQzNTg4MmUyZGIy
ZDViYjM2YmIzMIIBIjANBgkqhkiG9w0BAQEFAAOCAQ8AMIIBCgKCAQEAoOMyViBl
U3EfVR8seOOHkXYVVfv0pB8pLxOQQQUkU5KvN6GL/gxUkkc+A+WUM1B5tAtjGgtU
eYtocUarvJZHfTsCupL04WJ/MUmeO/3VkbAmA8BWwwzvdNCT8KvKns7hMmp0nkf6
H4Z7qDX9wcLGM1+g6QnW3onvjZJMs0pvkc3qfjbrGfohwZQqJ6i3JmENrFFRMXGG
jx0g0PLPQF8F6qu4PsJwpdCLnTHxRqGLhxu+0fKNGfhyCUEy8my3RcA2YWRRmZhn
mPeBCD5P2rn0llsHpeff9+5NGAhBiM/eKpA8LKQBY7jGURKeMywiIniBtVh8XK17
XAcI1AoIy9H6NQIDAQABo4GcMIGZMAkGA1UdEwQCMAAwHQYDVR0OBBYEFH+mnLPA
ANGdFVrqlXZrkpwfEFKbMEsGA1UdIwREMEKAFA4zgt6zMoqn27LHnShN83uroDGM
oR+kHTAbMRkwFwYDVQQDDBBjYS52cG4uaXdlLmNsb3VkggkAiaRtFzd4IGYwEwYD
VR0lBAwwCgYIKwYBBQUHAwIwCwYDVR0PBAQDAgeAMA0GCSqGSIb3DQEBCwUAA4IB
AQAudOPL0BKswIc5GD/mgwTc2US/1QSvBqXqMB3KAcRT3wd6PpgKjhRGu0P/4ZRM
8r8Q471Z7Occv0qEuwNrVlobW8jiqPWDxN+EZwZveTuX4XQlR04lNA2KPcyZu+2i
T9wpsyteD8eVcXL6aq3Rl08/mlkhj8kFNC05v687SuxH1Lp3sudiso43AC0aaOvr
Mf+IRrX1jJ9pGb/yAcfmaYNbJ2YXZtRz5su2xtwhTHstUFTgLjK+Ziv8OqAqs3Wq
nKNJtI0ca1ea06Id/VMZ/VpYsXNnDGnW76isvLlzDwbowYyKRYoyiNNTM+cZzsyb
IZ/iEMvmEtujBNXs2hNn1Xi6
-----END CERTIFICATE-----
