Certificate:
    Data:
        Version: 3 (0x2)
        Serial Number:
            ac:4f:47:59:93:ce:30:cc:ec:4c:77:bf:2a:8b:3e:df
    Signature Algorithm: sha256WithRSAEncryption
        Issuer: CN=ca.vpn.iwe.cloud
        Validity
            Not Before: Mar  8 10:46:07 2018 GMT
            Not After : Mar  5 10:46:07 2028 GMT
        Subject: CN=f47065c6-8316-4f01-85d1-bfef7dedb38b
        Subject Public Key Info:
            Public Key Algorithm: rsaEncryption
                Public-Key: (2048 bit)
                Modulus:
                    00:a8:b5:cf:f5:de:67:05:3c:53:0b:db:63:08:e9:
                    00:55:1a:f5:ff:c8:6c:49:fd:4a:6a:3a:78:8b:9b:
                    97:82:dc:ad:f3:e7:98:2c:b5:68:0b:0e:9f:9c:23:
                    fb:63:cc:08:0d:69:4d:b8:65:c4:1e:bc:56:cc:76:
                    ea:e2:45:98:1b:51:12:18:f5:a9:e2:32:5d:40:8f:
                    c3:61:e3:c6:ee:84:af:e3:e2:ec:ed:46:5a:c1:54:
                    d7:29:d0:3c:fc:3d:fc:0b:0b:8e:5f:9a:d0:a1:33:
                    00:b5:c3:bc:b3:5e:13:ac:fb:01:21:4a:5e:56:d9:
                    55:07:f8:83:23:a2:38:f8:d1:78:bf:f1:89:ec:0a:
                    14:9c:45:f1:bb:cb:ea:40:1f:81:7a:02:b6:e3:d3:
                    96:09:93:38:83:78:39:d1:27:18:ca:5c:c4:32:0c:
                    5c:f4:9e:4c:96:3e:3b:5c:a8:de:2d:b7:56:b0:af:
                    6f:2c:8a:af:1a:fa:b3:34:f0:76:46:2e:9b:ce:ca:
                    af:8f:f4:ce:01:45:2f:86:e0:34:18:0f:ea:94:75:
                    00:f7:b3:58:38:df:ca:88:29:a6:ca:ea:22:f8:00:
                    7e:a9:51:a7:6d:e4:fe:a1:fa:52:3c:fc:cf:53:31:
                    19:4e:cc:18:1c:f9:a0:84:c6:82:cb:e0:ae:98:99:
                    b5:e1
                Exponent: 65537 (0x10001)
        X509v3 extensions:
            X509v3 Basic Constraints: 
                CA:FALSE
            X509v3 Subject Key Identifier: 
                69:1B:B1:F3:BF:86:DD:3C:3E:25:78:6A:77:06:23:3D:7F:7E:D6:29
            X509v3 Authority Key Identifier: 
                keyid:0E:33:82:DE:B3:32:8A:A7:DB:B2:C7:9D:28:4D:F3:7B:AB:A0:31:8C
                DirName:/CN=ca.vpn.iwe.cloud
                serial:89:A4:6D:17:37:78:20:66

            X509v3 Extended Key Usage: 
                TLS Web Client Authentication
            X509v3 Key Usage: 
                Digital Signature
    Signature Algorithm: sha256WithRSAEncryption
         79:b8:2a:4a:cf:92:31:46:0f:80:a1:f8:21:27:41:60:d7:a6:
         17:12:be:1a:82:0a:ab:2a:59:18:55:62:9a:ef:41:84:67:ee:
         fc:49:c7:42:5a:38:d1:01:ad:77:08:11:19:6a:4e:0e:32:c2:
         ed:59:3b:33:d9:38:b0:2f:5f:ef:39:01:33:2c:3f:c7:56:25:
         52:b5:24:10:97:80:f3:9f:69:bc:a4:48:15:81:2f:c3:f1:cf:
         87:15:97:93:81:4e:0b:d5:2e:37:73:c9:fc:40:66:a2:56:3f:
         e3:b4:c6:92:af:06:69:b3:36:0f:87:a1:8d:58:14:65:37:a6:
         87:22:bb:87:2b:a3:a1:f1:98:3f:4c:21:dd:ca:48:5f:7b:6b:
         fe:f9:54:31:b0:a0:2b:24:24:11:31:59:95:fc:3c:33:1a:b8:
         70:4a:fb:f9:0c:6e:07:15:d2:6b:54:3e:b6:4c:a2:b6:6b:b6:
         86:29:40:68:6b:3c:af:2e:6f:97:58:bf:05:8d:6c:29:22:e8:
         7f:92:a9:ea:e9:d9:f5:ec:f9:51:f1:3f:7b:3c:92:73:46:2b:
         b0:35:f2:ee:d7:2f:f1:c1:f0:dd:81:94:68:96:73:6d:cc:1b:
         e7:a5:bf:33:78:0d:bd:9d:b4:50:61:f8:03:0d:aa:04:cd:62:
         e8:80:f0:3e
-----BEGIN CERTIFICATE-----
MIIDcjCCAlqgAwIBAgIRAKxPR1mTzjDM7Ex3vyqLPt8wDQYJKoZIhvcNAQELBQAw
GzEZMBcGA1UEAwwQY2EudnBuLml3ZS5jbG91ZDAeFw0xODAzMDgxMDQ2MDdaFw0y
ODAzMDUxMDQ2MDdaMC8xLTArBgNVBAMMJGY0NzA2NWM2LTgzMTYtNGYwMS04NWQx
LWJmZWY3ZGVkYjM4YjCCASIwDQYJKoZIhvcNAQEBBQADggEPADCCAQoCggEBAKi1
z/XeZwU8UwvbYwjpAFUa9f/IbEn9Smo6eIubl4LcrfPnmCy1aAsOn5wj+2PMCA1p
TbhlxB68Vsx26uJFmBtREhj1qeIyXUCPw2Hjxu6Er+Pi7O1GWsFU1ynQPPw9/AsL
jl+a0KEzALXDvLNeE6z7ASFKXlbZVQf4gyOiOPjReL/xiewKFJxF8bvL6kAfgXoC
tuPTlgmTOIN4OdEnGMpcxDIMXPSeTJY+O1yo3i23VrCvbyyKrxr6szTwdkYum87K
r4/0zgFFL4bgNBgP6pR1APezWDjfyogppsrqIvgAfqlRp23k/qH6Ujz8z1MxGU7M
GBz5oITGgsvgrpiZteECAwEAAaOBnDCBmTAJBgNVHRMEAjAAMB0GA1UdDgQWBBRp
G7Hzv4bdPD4leGp3BiM9f37WKTBLBgNVHSMERDBCgBQOM4LeszKKp9uyx50oTfN7
q6AxjKEfpB0wGzEZMBcGA1UEAwwQY2EudnBuLml3ZS5jbG91ZIIJAImkbRc3eCBm
MBMGA1UdJQQMMAoGCCsGAQUFBwMCMAsGA1UdDwQEAwIHgDANBgkqhkiG9w0BAQsF
AAOCAQEAebgqSs+SMUYPgKH4ISdBYNemFxK+GoIKqypZGFVimu9BhGfu/EnHQlo4
0QGtdwgRGWpODjLC7Vk7M9k4sC9f7zkBMyw/x1YlUrUkEJeA859pvKRIFYEvw/HP
hxWXk4FOC9UuN3PJ/EBmolY/47TGkq8GabM2D4ehjVgUZTemhyK7hyujofGYP0wh
3cpIX3tr/vlUMbCgKyQkETFZlfw8Mxq4cEr7+QxuBxXSa1Q+tkyitmu2hilAaGs8
ry5vl1i/BY1sKSLof5Kp6unZ9ez5UfE/ezySc0YrsDXy7tcv8cHw3YGUaJZzbcwb
56W/M3gNvZ20UGH4Aw2qBM1i6IDwPg==
-----END CERTIFICATE-----
