Certificate:
    Data:
        Version: 3 (0x2)
        Serial Number:
            ac:4f:47:59:93:ce:30:cc:ec:4c:77:bf:2a:8b:3e:da
    Signature Algorithm: sha256WithRSAEncryption
        Issuer: CN=ca.vpn.iwe.cloud
        Validity
            Not Before: Mar  7 16:51:21 2018 GMT
            Not After : Mar  4 16:51:21 2028 GMT
        Subject: CN=efc2a8cc-20e4-4bc5-8b49-a3134ecaad2e
        Subject Public Key Info:
            Public Key Algorithm: rsaEncryption
                Public-Key: (2048 bit)
                Modulus:
                    00:ba:af:c5:95:c1:4b:83:fc:f2:d9:3e:53:0d:88:
                    6d:aa:e0:4f:32:35:9a:9d:3c:0d:30:e9:4e:82:35:
                    51:a4:78:ca:fd:f9:c3:1a:ed:37:9d:66:79:c2:76:
                    c7:97:ab:c9:a9:71:7b:e6:88:d5:d3:7d:6e:53:9e:
                    f9:51:a3:e1:71:49:ae:eb:09:78:dd:5b:09:c3:22:
                    98:20:9a:c5:ee:7d:5c:da:42:aa:d0:83:60:18:ef:
                    66:a2:d0:2b:05:2a:94:c7:f7:f9:32:1b:30:a0:b6:
                    d4:58:da:51:55:ed:b7:a9:54:53:25:6d:ac:4c:58:
                    24:f8:20:48:bd:58:d4:67:ef:34:1a:b6:64:3d:2e:
                    65:d8:4c:ec:df:31:24:41:70:00:d6:08:d8:ea:3c:
                    36:7c:06:3e:de:4f:7f:3d:a3:44:14:2b:04:65:b6:
                    62:96:0b:5d:47:13:a9:db:6b:65:fc:3b:91:23:8c:
                    0b:29:21:f1:36:c7:87:90:2c:4b:d5:dd:3b:98:d6:
                    4f:20:fa:87:31:32:57:3c:43:96:78:bb:ab:c4:9c:
                    a5:18:13:c1:39:c1:2f:d6:20:9a:28:ca:58:09:3d:
                    47:ad:f0:44:73:fc:d5:af:39:af:0f:32:db:fa:07:
                    eb:91:4d:3e:08:b0:85:c1:37:ee:55:bc:59:93:53:
                    f0:99
                Exponent: 65537 (0x10001)
        X509v3 extensions:
            X509v3 Basic Constraints: 
                CA:FALSE
            X509v3 Subject Key Identifier: 
                44:2D:2C:9D:C0:9B:CE:B1:88:C8:B7:6A:5D:D9:02:41:FA:20:D9:96
            X509v3 Authority Key Identifier: 
                keyid:0E:33:82:DE:B3:32:8A:A7:DB:B2:C7:9D:28:4D:F3:7B:AB:A0:31:8C
                DirName:/CN=ca.vpn.iwe.cloud
                serial:89:A4:6D:17:37:78:20:66

            X509v3 Extended Key Usage: 
                TLS Web Client Authentication
            X509v3 Key Usage: 
                Digital Signature
    Signature Algorithm: sha256WithRSAEncryption
         7f:31:a7:76:fa:a8:17:e0:2d:4d:2b:31:5b:be:c3:68:af:89:
         c2:28:92:e2:2c:90:63:12:00:79:dd:67:1c:8b:6c:86:dc:a6:
         49:f2:8e:11:d6:8a:48:6d:1a:2c:3c:2c:7e:19:81:d6:c0:80:
         25:1e:e1:d3:46:18:55:ba:c0:14:a9:9f:af:90:e6:3b:b9:f7:
         56:8b:da:91:87:83:29:fd:db:aa:43:6b:bb:41:7b:27:e7:36:
         94:92:a7:af:d9:57:c9:61:e0:7e:d8:92:81:74:94:44:ff:28:
         8c:51:f5:52:da:28:dd:0d:76:73:ca:cb:e8:e3:12:9e:1b:8d:
         08:dd:0f:d8:9c:8e:8e:ca:0c:b0:e2:52:2f:45:ce:ec:fa:aa:
         67:0b:b4:8d:96:8d:dc:43:95:c8:84:66:73:d8:c4:53:3a:9c:
         bc:80:db:7d:1d:a7:97:04:c5:6e:50:83:cf:af:d0:2d:29:23:
         6b:14:00:02:9f:fb:1a:cf:05:2b:8f:33:e4:f5:11:7f:61:fa:
         57:42:2a:45:f1:5b:ee:9e:9d:a1:25:e8:38:ce:33:2b:a1:e3:
         fa:d4:bd:4c:cb:c5:28:2c:29:98:a0:9d:66:14:00:b1:15:9b:
         da:49:09:f1:47:9b:2a:f1:d1:88:01:c1:26:27:0b:dc:e0:a4:
         bd:11:52:21
-----BEGIN CERTIFICATE-----
MIIDcjCCAlqgAwIBAgIRAKxPR1mTzjDM7Ex3vyqLPtowDQYJKoZIhvcNAQELBQAw
GzEZMBcGA1UEAwwQY2EudnBuLml3ZS5jbG91ZDAeFw0xODAzMDcxNjUxMjFaFw0y
ODAzMDQxNjUxMjFaMC8xLTArBgNVBAMMJGVmYzJhOGNjLTIwZTQtNGJjNS04YjQ5
LWEzMTM0ZWNhYWQyZTCCASIwDQYJKoZIhvcNAQEBBQADggEPADCCAQoCggEBALqv
xZXBS4P88tk+Uw2IbargTzI1mp08DTDpToI1UaR4yv35wxrtN51mecJ2x5eryalx
e+aI1dN9blOe+VGj4XFJrusJeN1bCcMimCCaxe59XNpCqtCDYBjvZqLQKwUqlMf3
+TIbMKC21FjaUVXtt6lUUyVtrExYJPggSL1Y1GfvNBq2ZD0uZdhM7N8xJEFwANYI
2Oo8NnwGPt5Pfz2jRBQrBGW2YpYLXUcTqdtrZfw7kSOMCykh8TbHh5AsS9XdO5jW
TyD6hzEyVzxDlni7q8ScpRgTwTnBL9YgmijKWAk9R63wRHP81a85rw8y2/oH65FN
PgiwhcE37lW8WZNT8JkCAwEAAaOBnDCBmTAJBgNVHRMEAjAAMB0GA1UdDgQWBBRE
LSydwJvOsYjIt2pd2QJB+iDZljBLBgNVHSMERDBCgBQOM4LeszKKp9uyx50oTfN7
q6AxjKEfpB0wGzEZMBcGA1UEAwwQY2EudnBuLml3ZS5jbG91ZIIJAImkbRc3eCBm
MBMGA1UdJQQMMAoGCCsGAQUFBwMCMAsGA1UdDwQEAwIHgDANBgkqhkiG9w0BAQsF
AAOCAQEAfzGndvqoF+AtTSsxW77DaK+JwiiS4iyQYxIAed1nHItshtymSfKOEdaK
SG0aLDwsfhmB1sCAJR7h00YYVbrAFKmfr5DmO7n3VovakYeDKf3bqkNru0F7J+c2
lJKnr9lXyWHgftiSgXSURP8ojFH1Utoo3Q12c8rL6OMSnhuNCN0P2JyOjsoMsOJS
L0XO7PqqZwu0jZaN3EOVyIRmc9jEUzqcvIDbfR2nlwTFblCDz6/QLSkjaxQAAp/7
Gs8FK48z5PURf2H6V0IqRfFb7p6doSXoOM4zK6Hj+tS9TMvFKCwpmKCdZhQAsRWb
2kkJ8UebKvHRiAHBJicL3OCkvRFSIQ==
-----END CERTIFICATE-----
