Certificate:
    Data:
        Version: 3 (0x2)
        Serial Number:
            ac:4f:47:59:93:ce:30:cc:ec:4c:77:bf:2a:8b:3e:ce
    Signature Algorithm: sha256WithRSAEncryption
        Issuer: CN=ca.vpn.iwe.cloud
        Validity
            Not Before: Feb 28 14:19:22 2018 GMT
            Not After : Feb 26 14:19:22 2028 GMT
        Subject: CN=server-bce23807-07b6-4bd1-bf14-6e6cf4fe9013
        Subject Public Key Info:
            Public Key Algorithm: rsaEncryption
                Public-Key: (2048 bit)
                Modulus:
                    00:df:43:02:74:b8:36:2e:57:2f:01:53:84:53:b2:
                    f1:f0:8a:37:e8:ce:98:5c:02:09:19:d9:87:10:d3:
                    b1:5b:7c:96:16:f9:72:95:42:32:b8:82:d1:13:68:
                    75:00:11:5d:18:f4:20:70:24:e0:43:a5:c4:6c:c7:
                    8b:6e:7b:fe:09:11:88:7e:fd:91:64:b0:08:2e:a6:
                    4a:c3:6a:b2:73:33:1e:4c:28:25:ea:bf:9a:5b:3f:
                    49:7a:d7:c3:19:e6:ce:4e:0e:10:30:51:b4:44:9b:
                    82:b6:37:6a:8e:05:8a:3a:d8:e2:0a:b9:39:40:d0:
                    ca:4e:a5:c4:6f:a1:76:bc:dd:3a:0c:4b:17:87:7c:
                    8d:02:42:4b:dc:f3:06:0d:29:66:b5:70:7e:85:58:
                    94:e5:c6:9e:f4:72:97:64:67:e4:12:8a:a0:27:bb:
                    b0:c4:cc:e7:17:c8:c8:63:54:0a:83:db:18:c8:6c:
                    5d:b6:f7:cb:0e:5a:02:5b:97:b3:50:d2:bf:f5:1d:
                    45:1f:67:06:76:27:2b:f6:0d:53:68:e5:da:d5:61:
                    45:37:8a:cd:e9:b8:f6:c2:60:06:6f:0d:cb:9b:1e:
                    90:15:dc:58:13:4f:4a:f5:7b:94:95:b7:41:91:3e:
                    e3:de:35:90:53:ac:67:4b:65:07:62:9f:e6:8f:4d:
                    72:ad
                Exponent: 65537 (0x10001)
        X509v3 extensions:
            X509v3 Basic Constraints: 
                CA:FALSE
            X509v3 Subject Key Identifier: 
                0C:5B:41:0F:6C:9D:35:DB:7D:1A:38:B2:B9:66:CE:EA:6B:F0:5A:D0
            X509v3 Authority Key Identifier: 
                keyid:0E:33:82:DE:B3:32:8A:A7:DB:B2:C7:9D:28:4D:F3:7B:AB:A0:31:8C
                DirName:/CN=ca.vpn.iwe.cloud
                serial:89:A4:6D:17:37:78:20:66

            X509v3 Extended Key Usage: 
                TLS Web Server Authentication
            X509v3 Key Usage: 
                Digital Signature, Key Encipherment
            X509v3 Subject Alternative Name: 
                DNS:server-bce23807-07b6-4bd1-bf14-6e6cf4fe9013
    Signature Algorithm: sha256WithRSAEncryption
         64:80:4e:a8:d8:84:b0:d4:d9:ce:07:80:d8:57:ea:b0:77:d5:
         20:85:4d:fd:f4:5e:49:55:e0:c5:98:e4:65:67:40:a0:31:47:
         df:41:c5:50:c4:db:22:f3:e3:7c:b4:dc:71:ed:a0:8f:f7:43:
         5d:f1:74:62:57:f6:30:4b:3b:5b:96:a4:ae:f7:3a:67:f2:77:
         4d:78:fd:d7:33:06:28:c5:d9:f0:7a:de:93:4e:48:d2:76:d4:
         f5:b8:e2:ec:fe:b5:8d:3b:4d:17:c3:4f:64:81:79:ef:43:5b:
         54:40:36:4b:2b:4b:63:01:2b:e2:92:d8:39:7a:09:7c:ae:29:
         e0:69:ef:72:a3:01:24:9b:2a:f4:39:42:23:6b:9a:df:ee:35:
         63:7a:9b:2c:46:3f:9a:f0:6c:d4:a8:20:b0:23:76:e4:f7:70:
         3f:f2:bf:9c:f7:d1:a4:3d:c8:22:a9:d2:5b:05:78:97:f0:f6:
         6f:29:c9:d1:68:a9:ac:36:9d:28:89:97:c8:af:8c:42:dc:92:
         14:62:03:4f:0a:40:27:99:26:ca:1b:e1:c8:32:03:21:e7:70:
         d1:34:25:3a:9c:72:14:d8:98:90:ed:8a:a7:99:17:f9:07:19:
         61:3a:e9:7b:2e:ac:e3:4e:ce:d6:9d:f1:22:61:15:26:c0:81:
         31:9a:ea:ea
-----BEGIN CERTIFICATE-----
MIIDsTCCApmgAwIBAgIRAKxPR1mTzjDM7Ex3vyqLPs4wDQYJKoZIhvcNAQELBQAw
GzEZMBcGA1UEAwwQY2EudnBuLml3ZS5jbG91ZDAeFw0xODAyMjgxNDE5MjJaFw0y
ODAyMjYxNDE5MjJaMDYxNDAyBgNVBAMMK3NlcnZlci1iY2UyMzgwNy0wN2I2LTRi
ZDEtYmYxNC02ZTZjZjRmZTkwMTMwggEiMA0GCSqGSIb3DQEBAQUAA4IBDwAwggEK
AoIBAQDfQwJ0uDYuVy8BU4RTsvHwijfozphcAgkZ2YcQ07FbfJYW+XKVQjK4gtET
aHUAEV0Y9CBwJOBDpcRsx4tue/4JEYh+/ZFksAgupkrDarJzMx5MKCXqv5pbP0l6
18MZ5s5ODhAwUbREm4K2N2qOBYo62OIKuTlA0MpOpcRvoXa83ToMSxeHfI0CQkvc
8wYNKWa1cH6FWJTlxp70cpdkZ+QSiqAnu7DEzOcXyMhjVAqD2xjIbF2298sOWgJb
l7NQ0r/1HUUfZwZ2Jyv2DVNo5drVYUU3is3puPbCYAZvDcubHpAV3FgTT0r1e5SV
t0GRPuPeNZBTrGdLZQdin+aPTXKtAgMBAAGjgdQwgdEwCQYDVR0TBAIwADAdBgNV
HQ4EFgQUDFtBD2ydNdt9GjiyuWbO6mvwWtAwSwYDVR0jBEQwQoAUDjOC3rMyiqfb
ssedKE3ze6ugMYyhH6QdMBsxGTAXBgNVBAMMEGNhLnZwbi5pd2UuY2xvdWSCCQCJ
pG0XN3ggZjATBgNVHSUEDDAKBggrBgEFBQcDATALBgNVHQ8EBAMCBaAwNgYDVR0R
BC8wLYIrc2VydmVyLWJjZTIzODA3LTA3YjYtNGJkMS1iZjE0LTZlNmNmNGZlOTAx
MzANBgkqhkiG9w0BAQsFAAOCAQEAZIBOqNiEsNTZzgeA2FfqsHfVIIVN/fReSVXg
xZjkZWdAoDFH30HFUMTbIvPjfLTcce2gj/dDXfF0Ylf2MEs7W5akrvc6Z/J3TXj9
1zMGKMXZ8Hrek05I0nbU9bji7P61jTtNF8NPZIF570NbVEA2SytLYwEr4pLYOXoJ
fK4p4GnvcqMBJJsq9DlCI2ua3+41Y3qbLEY/mvBs1KggsCN25PdwP/K/nPfRpD3I
IqnSWwV4l/D2bynJ0WiprDadKImXyK+MQtySFGIDTwpAJ5kmyhvhyDIDIedw0TQl
OpxyFNiYkO2Kp5kX+QcZYTrpey6s407O1p3xImEVJsCBMZrq6g==
-----END CERTIFICATE-----
