Certificate:
    Data:
        Version: 3 (0x2)
        Serial Number:
            ac:4f:47:59:93:ce:30:cc:ec:4c:77:bf:2a:8b:3e:ef
    Signature Algorithm: sha256WithRSAEncryption
        Issuer: CN=ca.vpn.iwe.cloud
        Validity
            Not Before: Mar 29 17:56:13 2018 GMT
            Not After : Mar 26 17:56:13 2028 GMT
        Subject: CN=e52a07ddc72e4b35beaa271d03d82f0en
        Subject Public Key Info:
            Public Key Algorithm: rsaEncryption
                Public-Key: (2048 bit)
                Modulus:
                    00:bd:58:3a:99:45:f8:78:08:50:9b:45:44:82:70:
                    66:53:5e:03:c8:ec:b7:3a:98:7a:c0:b1:46:ae:f4:
                    5b:eb:18:78:41:33:db:84:57:f6:b2:22:d1:f1:5b:
                    1e:db:d1:f7:b3:c5:5e:22:c9:87:d0:a1:36:a9:57:
                    3d:bc:e9:74:4b:a5:e9:25:20:10:d7:b2:12:b4:d4:
                    4d:da:47:12:24:d7:2a:75:72:75:5a:77:5b:64:15:
                    3b:ec:72:0b:94:fd:ce:b5:f6:dd:74:61:81:0b:99:
                    b3:26:07:c0:a3:28:35:ea:53:0d:47:88:3b:09:0c:
                    ab:91:f0:a8:82:47:0c:17:7a:29:a0:2f:7a:a7:c9:
                    8d:de:a8:03:f2:7d:20:50:e0:3a:62:ec:5a:07:7d:
                    92:92:ee:0b:cb:fa:ca:25:3f:9b:9b:6c:77:c8:b1:
                    a9:0d:32:f2:bf:c4:a7:29:a9:5d:84:f4:45:4a:e4:
                    04:54:b1:cc:e3:5f:82:ff:47:35:17:83:3d:4f:15:
                    95:5d:71:3f:f6:23:03:c0:30:8c:a0:e0:89:1e:8f:
                    b0:ed:78:b1:1b:d0:9c:e1:48:54:52:9f:8f:88:cc:
                    03:6b:60:c3:ef:12:27:94:3d:78:db:93:81:0e:a5:
                    86:64:ec:61:62:a4:ca:2b:4d:5a:9f:6f:5d:ab:23:
                    58:53
                Exponent: 65537 (0x10001)
        X509v3 extensions:
            X509v3 Basic Constraints: 
                CA:FALSE
            X509v3 Subject Key Identifier: 
                01:7C:D4:3E:F7:EC:38:1C:A1:8E:DC:86:B9:F3:62:CE:18:38:E1:B3
            X509v3 Authority Key Identifier: 
                keyid:0E:33:82:DE:B3:32:8A:A7:DB:B2:C7:9D:28:4D:F3:7B:AB:A0:31:8C
                DirName:/CN=ca.vpn.iwe.cloud
                serial:89:A4:6D:17:37:78:20:66

            X509v3 Extended Key Usage: 
                TLS Web Client Authentication
            X509v3 Key Usage: 
                Digital Signature
    Signature Algorithm: sha256WithRSAEncryption
         8f:60:cd:c4:97:29:65:29:82:b8:0a:7a:59:9c:7b:50:df:62:
         74:a4:80:fe:5c:44:1b:c5:c9:c7:61:80:76:40:db:c8:0f:d6:
         35:24:6c:38:c7:42:5d:4b:5d:39:e0:1d:1b:58:e0:c8:45:64:
         c1:6d:c3:44:1a:26:2e:16:ef:10:7f:75:87:eb:fd:c1:bf:5d:
         88:b8:77:f5:98:c5:38:bb:b2:64:78:6d:e2:44:fc:8c:4d:e9:
         bb:da:7e:22:5e:6d:c9:45:28:f9:c0:5f:92:37:79:26:de:f4:
         e4:67:22:1a:0f:a9:2c:23:27:a4:a2:1b:06:e5:a4:5a:dd:7f:
         46:47:a5:c9:86:3c:f5:75:52:5b:c9:fe:a6:71:a8:27:05:18:
         7f:a6:33:cf:0d:6c:67:82:e5:90:57:b0:2a:5d:66:52:48:75:
         b5:f2:9c:29:5e:a2:c1:e5:b7:e8:36:e7:89:bf:a6:e6:85:e1:
         6f:d5:28:da:4b:c8:30:85:b6:c6:3e:aa:1d:aa:5b:8c:a6:88:
         3b:f0:5d:ee:46:64:c0:49:ee:40:49:8c:c6:92:85:d4:ea:12:
         61:2f:37:35:59:82:b8:33:43:2d:b2:ce:92:52:5a:69:c3:18:
         8d:f0:58:0d:10:b4:11:45:9b:98:e5:f1:78:ad:7f:f0:fc:f1:
         88:35:63:03
-----BEGIN CERTIFICATE-----
MIIDbzCCAlegAwIBAgIRAKxPR1mTzjDM7Ex3vyqLPu8wDQYJKoZIhvcNAQELBQAw
GzEZMBcGA1UEAwwQY2EudnBuLml3ZS5jbG91ZDAeFw0xODAzMjkxNzU2MTNaFw0y
ODAzMjYxNzU2MTNaMCwxKjAoBgNVBAMMIWU1MmEwN2RkYzcyZTRiMzViZWFhMjcx
ZDAzZDgyZjBlbjCCASIwDQYJKoZIhvcNAQEBBQADggEPADCCAQoCggEBAL1YOplF
+HgIUJtFRIJwZlNeA8jstzqYesCxRq70W+sYeEEz24RX9rIi0fFbHtvR97PFXiLJ
h9ChNqlXPbzpdEul6SUgENeyErTUTdpHEiTXKnVydVp3W2QVO+xyC5T9zrX23XRh
gQuZsyYHwKMoNepTDUeIOwkMq5HwqIJHDBd6KaAveqfJjd6oA/J9IFDgOmLsWgd9
kpLuC8v6yiU/m5tsd8ixqQ0y8r/EpympXYT0RUrkBFSxzONfgv9HNReDPU8VlV1x
P/YjA8AwjKDgiR6PsO14sRvQnOFIVFKfj4jMA2tgw+8SJ5Q9eNuTgQ6lhmTsYWKk
yitNWp9vXasjWFMCAwEAAaOBnDCBmTAJBgNVHRMEAjAAMB0GA1UdDgQWBBQBfNQ+
9+w4HKGO3Ia582LOGDjhszBLBgNVHSMERDBCgBQOM4LeszKKp9uyx50oTfN7q6Ax
jKEfpB0wGzEZMBcGA1UEAwwQY2EudnBuLml3ZS5jbG91ZIIJAImkbRc3eCBmMBMG
A1UdJQQMMAoGCCsGAQUFBwMCMAsGA1UdDwQEAwIHgDANBgkqhkiG9w0BAQsFAAOC
AQEAj2DNxJcpZSmCuAp6WZx7UN9idKSA/lxEG8XJx2GAdkDbyA/WNSRsOMdCXUtd
OeAdG1jgyEVkwW3DRBomLhbvEH91h+v9wb9diLh39ZjFOLuyZHht4kT8jE3pu9p+
Il5tyUUo+cBfkjd5Jt705GciGg+pLCMnpKIbBuWkWt1/RkelyYY89XVSW8n+pnGo
JwUYf6Yzzw1sZ4LlkFewKl1mUkh1tfKcKV6iweW36Dbnib+m5oXhb9Uo2kvIMIW2
xj6qHapbjKaIO/Bd7kZkwEnuQEmMxpKF1OoSYS83NVmCuDNDLbLOklJaacMYjfBY
DRC0EUWbmOXxeK1/8PzxiDVjAw==
-----END CERTIFICATE-----
