Certificate:
    Data:
        Version: 3 (0x2)
        Serial Number:
            ac:4f:47:59:93:ce:30:cc:ec:4c:77:bf:2a:8b:3e:f6
    Signature Algorithm: sha256WithRSAEncryption
        Issuer: CN=ca.vpn.iwe.cloud
        Validity
            Not Before: Mar 29 18:32:06 2018 GMT
            Not After : Mar 26 18:32:06 2028 GMT
        Subject: CN=peterpeterpeter
        Subject Public Key Info:
            Public Key Algorithm: rsaEncryption
                Public-Key: (2048 bit)
                Modulus:
                    00:cc:4f:91:18:3c:5f:1e:6d:cb:77:2d:4d:fa:fe:
                    cc:38:ed:84:d1:9c:a8:b8:d9:4f:ee:f4:5f:78:8d:
                    d7:5e:ff:e9:85:23:d6:a0:34:80:23:65:a7:5a:b1:
                    0f:e7:1f:00:8b:3c:e1:52:0a:82:8c:8d:8f:d2:ad:
                    e2:0b:54:2f:6b:fb:bf:b6:31:9b:16:15:4b:17:00:
                    b0:b7:a1:c0:80:df:a4:2f:cd:6d:73:3f:80:7b:37:
                    5a:82:3c:0f:bd:c2:fd:36:c2:1f:06:6d:19:76:2b:
                    5c:a5:fa:aa:9f:06:8f:a7:9f:ec:57:04:66:f4:ca:
                    d9:71:f1:13:66:86:96:45:a3:a0:48:90:43:e6:cf:
                    46:39:30:7d:68:93:a6:0b:be:d5:9c:13:26:ed:8c:
                    fe:30:91:9d:20:64:16:85:25:84:de:de:58:af:b0:
                    4f:8f:7a:dc:ee:70:aa:a3:bc:20:aa:02:75:d3:5d:
                    d8:f6:2b:21:a6:b7:d5:12:47:84:6c:73:d5:f3:b3:
                    95:cb:fe:f2:09:a8:22:68:55:bf:ae:ed:18:db:9c:
                    9c:8f:83:f2:bd:c6:a9:c8:02:37:d8:0d:50:ce:15:
                    27:ff:ec:84:ed:dd:a0:a7:9d:a1:89:09:54:af:c6:
                    01:0e:f7:a9:49:eb:9b:1c:47:4b:ae:7d:7f:00:6c:
                    df:7f
                Exponent: 65537 (0x10001)
        X509v3 extensions:
            X509v3 Basic Constraints: 
                CA:FALSE
            X509v3 Subject Key Identifier: 
                A2:08:B1:B7:8F:26:57:BB:1D:F2:CF:1E:F3:3A:BE:7D:C5:7C:AC:EC
            X509v3 Authority Key Identifier: 
                keyid:0E:33:82:DE:B3:32:8A:A7:DB:B2:C7:9D:28:4D:F3:7B:AB:A0:31:8C
                DirName:/CN=ca.vpn.iwe.cloud
                serial:89:A4:6D:17:37:78:20:66

            X509v3 Extended Key Usage: 
                TLS Web Client Authentication
            X509v3 Key Usage: 
                Digital Signature
    Signature Algorithm: sha256WithRSAEncryption
         2f:a6:7e:a4:08:f5:89:0a:86:48:1f:2c:7d:69:74:7f:50:0e:
         37:d8:66:63:5d:4b:7b:6c:62:fd:15:31:29:1f:74:1c:1e:e1:
         51:9c:21:d5:2c:48:0c:b9:92:5a:51:95:3e:ad:d4:54:89:63:
         a0:6d:a9:33:28:3d:c2:25:cb:f1:e9:e7:d8:0a:d1:05:ef:0d:
         80:48:a1:74:b3:d7:c7:48:5a:e0:f2:21:bb:92:f2:d3:b1:7a:
         f2:1c:24:e2:9c:e2:12:8b:de:60:10:50:a1:bf:f1:33:55:1d:
         e3:3f:bf:a2:d6:ec:05:ae:c6:5f:d5:0b:cc:11:a1:05:7e:66:
         17:2b:b0:ac:f9:93:6e:5c:53:1f:c0:f4:ae:f3:b6:86:a8:27:
         6a:cf:10:9d:ac:d5:99:2a:5b:34:2c:96:f6:8e:d2:2a:7d:0d:
         1b:cb:f8:ab:08:2a:7f:81:37:58:80:60:a5:51:5c:3d:f1:a0:
         3f:4b:54:8a:d6:b2:3d:0a:71:c5:98:24:9b:54:2b:27:28:1d:
         76:18:1b:95:1a:13:be:f2:53:1b:f5:0f:81:d1:cb:43:34:ce:
         db:aa:20:19:12:c3:46:98:d2:c6:a4:14:fc:0d:b7:36:8d:92:
         95:a5:98:6d:c8:45:6b:72:96:71:3d:87:63:fb:21:ec:e6:87:
         26:a9:81:32
-----BEGIN CERTIFICATE-----
MIIDXTCCAkWgAwIBAgIRAKxPR1mTzjDM7Ex3vyqLPvYwDQYJKoZIhvcNAQELBQAw
GzEZMBcGA1UEAwwQY2EudnBuLml3ZS5jbG91ZDAeFw0xODAzMjkxODMyMDZaFw0y
ODAzMjYxODMyMDZaMBoxGDAWBgNVBAMMD3BldGVycGV0ZXJwZXRlcjCCASIwDQYJ
KoZIhvcNAQEBBQADggEPADCCAQoCggEBAMxPkRg8Xx5ty3ctTfr+zDjthNGcqLjZ
T+70X3iN117/6YUj1qA0gCNlp1qxD+cfAIs84VIKgoyNj9Kt4gtUL2v7v7YxmxYV
SxcAsLehwIDfpC/NbXM/gHs3WoI8D73C/TbCHwZtGXYrXKX6qp8Gj6ef7FcEZvTK
2XHxE2aGlkWjoEiQQ+bPRjkwfWiTpgu+1ZwTJu2M/jCRnSBkFoUlhN7eWK+wT496
3O5wqqO8IKoCddNd2PYrIaa31RJHhGxz1fOzlcv+8gmoImhVv67tGNucnI+D8r3G
qcgCN9gNUM4VJ//shO3doKedoYkJVK/GAQ73qUnrmxxHS659fwBs338CAwEAAaOB
nDCBmTAJBgNVHRMEAjAAMB0GA1UdDgQWBBSiCLG3jyZXux3yzx7zOr59xXys7DBL
BgNVHSMERDBCgBQOM4LeszKKp9uyx50oTfN7q6AxjKEfpB0wGzEZMBcGA1UEAwwQ
Y2EudnBuLml3ZS5jbG91ZIIJAImkbRc3eCBmMBMGA1UdJQQMMAoGCCsGAQUFBwMC
MAsGA1UdDwQEAwIHgDANBgkqhkiG9w0BAQsFAAOCAQEAL6Z+pAj1iQqGSB8sfWl0
f1AON9hmY11Le2xi/RUxKR90HB7hUZwh1SxIDLmSWlGVPq3UVIljoG2pMyg9wiXL
8enn2ArRBe8NgEihdLPXx0ha4PIhu5Ly07F68hwk4pziEoveYBBQob/xM1Ud4z+/
otbsBa7GX9ULzBGhBX5mFyuwrPmTblxTH8D0rvO2hqgnas8QnazVmSpbNCyW9o7S
Kn0NG8v4qwgqf4E3WIBgpVFcPfGgP0tUitayPQpxxZgkm1QrJygddhgblRoTvvJT
G/UPgdHLQzTO26ogGRLDRpjSxqQU/A23No2SlaWYbchFa3KWcT2HY/sh7OaHJqmB
Mg==
-----END CERTIFICATE-----
