Certificate:
    Data:
        Version: 3 (0x2)
        Serial Number:
            ac:4f:47:59:93:ce:30:cc:ec:4c:77:bf:2a:8b:3e:d1
    Signature Algorithm: sha256WithRSAEncryption
        Issuer: CN=ca.vpn.iwe.cloud
        Validity
            Not Before: Mar  7 14:13:43 2018 GMT
            Not After : Mar  4 14:13:43 2028 GMT
        Subject: CN=d72e4a4f-52cb-4234-94f7-e0748adb5779
        Subject Public Key Info:
            Public Key Algorithm: rsaEncryption
                Public-Key: (2048 bit)
                Modulus:
                    00:96:16:e7:b0:14:31:24:5f:4a:3e:f5:21:2e:2e:
                    35:4b:7a:65:0a:b9:3e:6c:06:87:28:08:ce:da:f1:
                    69:01:55:21:78:de:bf:fe:87:fa:0f:f7:94:a1:c4:
                    ce:86:3b:f4:1a:5d:7e:d2:60:ff:e0:64:75:60:39:
                    d5:d0:8e:d5:51:f5:44:aa:84:13:40:58:a6:ad:c7:
                    7a:f7:bf:a8:24:84:21:f3:b2:d0:a2:1b:7c:dd:2d:
                    66:5e:4b:ed:1d:be:4f:cd:09:66:65:33:b6:46:9b:
                    a6:ef:9d:fd:f7:bc:a6:d5:0c:19:cc:77:bc:c0:93:
                    d0:ee:6c:9b:f3:22:0a:6f:d4:30:b2:27:44:e6:0f:
                    58:ac:36:e8:b5:ca:81:d6:bf:4a:98:fc:d1:41:01:
                    54:76:81:a1:f9:cf:85:06:de:8c:29:44:16:c5:87:
                    51:4f:1b:0c:56:f9:9c:ca:45:e8:a8:8b:79:e8:88:
                    1a:f6:02:cb:cc:bd:f0:a0:b8:36:c0:3f:b8:9b:16:
                    77:38:bf:3c:2a:05:8e:f0:73:72:8e:4a:4e:74:b3:
                    31:a2:1b:4c:eb:7b:e1:61:f7:d9:65:63:6a:05:7f:
                    29:6b:98:81:a3:b8:24:ce:a7:e7:fb:2e:fb:69:2e:
                    39:7c:1b:e1:e9:3c:62:4d:88:7c:09:2f:99:9c:5c:
                    db:6f
                Exponent: 65537 (0x10001)
        X509v3 extensions:
            X509v3 Basic Constraints: 
                CA:FALSE
            X509v3 Subject Key Identifier: 
                07:D7:01:C6:7D:A3:6E:90:FB:73:C9:BA:C7:23:82:04:CF:B7:C1:8A
            X509v3 Authority Key Identifier: 
                keyid:0E:33:82:DE:B3:32:8A:A7:DB:B2:C7:9D:28:4D:F3:7B:AB:A0:31:8C
                DirName:/CN=ca.vpn.iwe.cloud
                serial:89:A4:6D:17:37:78:20:66

            X509v3 Extended Key Usage: 
                TLS Web Client Authentication
            X509v3 Key Usage: 
                Digital Signature
    Signature Algorithm: sha256WithRSAEncryption
         96:fc:8c:1a:70:79:86:aa:fe:5e:3e:e5:40:18:e6:e8:c8:73:
         30:27:0e:f4:87:bd:7e:3b:83:97:c4:57:e2:75:bc:6f:9c:58:
         00:37:0c:68:14:78:ee:c4:2e:70:c9:f0:a6:5e:bf:60:ce:77:
         02:94:ee:bd:b8:44:59:7a:26:b4:5f:e5:a6:6e:bc:94:4a:96:
         c9:a1:21:1a:0c:f9:48:78:f4:1f:60:03:38:e7:4e:6c:c4:98:
         e9:31:a6:c2:8a:1b:25:4e:7c:01:40:20:4e:a0:7b:de:6b:08:
         43:59:75:3f:7e:d7:1e:8c:8e:83:84:50:ac:b2:4b:d1:ee:b4:
         01:ec:fe:e4:0d:f5:eb:54:08:af:dc:fc:01:5c:f0:ff:a5:77:
         bd:bf:d0:c3:ff:9b:bb:e8:c1:cd:3b:65:94:76:31:27:a8:0c:
         03:16:1d:89:91:91:cb:8e:ee:1b:b6:12:bf:cf:b8:ed:40:ed:
         f1:65:dd:f8:fa:b0:7e:0c:d2:e2:55:fe:bc:2c:b7:a9:ad:91:
         0f:6c:06:e5:52:67:cd:f5:34:10:78:d9:45:4b:a3:fa:03:58:
         c4:58:a6:33:32:13:59:c4:e1:54:03:8e:b7:9e:da:b1:e9:93:
         e6:a9:da:4d:1b:cb:dc:04:8c:7e:7b:a8:6a:05:a2:50:cc:32:
         31:98:af:d4
-----BEGIN CERTIFICATE-----
MIIDcjCCAlqgAwIBAgIRAKxPR1mTzjDM7Ex3vyqLPtEwDQYJKoZIhvcNAQELBQAw
GzEZMBcGA1UEAwwQY2EudnBuLml3ZS5jbG91ZDAeFw0xODAzMDcxNDEzNDNaFw0y
ODAzMDQxNDEzNDNaMC8xLTArBgNVBAMMJGQ3MmU0YTRmLTUyY2ItNDIzNC05NGY3
LWUwNzQ4YWRiNTc3OTCCASIwDQYJKoZIhvcNAQEBBQADggEPADCCAQoCggEBAJYW
57AUMSRfSj71IS4uNUt6ZQq5PmwGhygIztrxaQFVIXjev/6H+g/3lKHEzoY79Bpd
ftJg/+BkdWA51dCO1VH1RKqEE0BYpq3Heve/qCSEIfOy0KIbfN0tZl5L7R2+T80J
ZmUztkabpu+d/fe8ptUMGcx3vMCT0O5sm/MiCm/UMLInROYPWKw26LXKgda/Spj8
0UEBVHaBofnPhQbejClEFsWHUU8bDFb5nMpF6KiLeeiIGvYCy8y98KC4NsA/uJsW
dzi/PCoFjvBzco5KTnSzMaIbTOt74WH32WVjagV/KWuYgaO4JM6n5/su+2kuOXwb
4ek8Yk2IfAkvmZxc228CAwEAAaOBnDCBmTAJBgNVHRMEAjAAMB0GA1UdDgQWBBQH
1wHGfaNukPtzybrHI4IEz7fBijBLBgNVHSMERDBCgBQOM4LeszKKp9uyx50oTfN7
q6AxjKEfpB0wGzEZMBcGA1UEAwwQY2EudnBuLml3ZS5jbG91ZIIJAImkbRc3eCBm
MBMGA1UdJQQMMAoGCCsGAQUFBwMCMAsGA1UdDwQEAwIHgDANBgkqhkiG9w0BAQsF
AAOCAQEAlvyMGnB5hqr+Xj7lQBjm6MhzMCcO9Ie9fjuDl8RX4nW8b5xYADcMaBR4
7sQucMnwpl6/YM53ApTuvbhEWXomtF/lpm68lEqWyaEhGgz5SHj0H2ADOOdObMSY
6TGmwoobJU58AUAgTqB73msIQ1l1P37XHoyOg4RQrLJL0e60Aez+5A3161QIr9z8
AVzw/6V3vb/Qw/+bu+jBzTtllHYxJ6gMAxYdiZGRy47uG7YSv8+47UDt8WXd+Pqw
fgzS4lX+vCy3qa2RD2wG5VJnzfU0EHjZRUuj+gNYxFimMzITWcThVAOOt57asemT
5qnaTRvL3ASMfnuoagWiUMwyMZiv1A==
-----END CERTIFICATE-----
