Certificate:
    Data:
        Version: 3 (0x2)
        Serial Number:
            ac:4f:47:59:93:ce:30:cc:ec:4c:77:bf:2a:8b:3e:d5
    Signature Algorithm: sha256WithRSAEncryption
        Issuer: CN=ca.vpn.iwe.cloud
        Validity
            Not Before: Mar  7 15:09:42 2018 GMT
            Not After : Mar  4 15:09:42 2028 GMT
        Subject: CN=186352ba-15c4-40fd-a2a2-bab766846da7
        Subject Public Key Info:
            Public Key Algorithm: rsaEncryption
                Public-Key: (2048 bit)
                Modulus:
                    00:ae:b2:8b:0f:36:57:f5:6e:fc:87:81:5b:a8:53:
                    cc:af:ff:b2:5a:f1:9e:b2:e9:c3:56:ad:f2:52:c9:
                    aa:8f:6e:83:86:87:48:53:15:4a:39:8a:96:d5:ea:
                    e4:4b:eb:c1:b6:79:16:dc:10:45:84:5b:a8:17:dd:
                    d5:19:a7:cb:48:24:d8:c5:32:4e:41:ce:2f:0c:34:
                    75:cc:8e:d9:9b:6c:18:2b:58:f0:31:96:b8:03:b9:
                    a8:85:04:04:1d:15:34:a7:da:d0:30:b3:c7:38:84:
                    41:61:78:89:3c:56:2b:ce:d2:97:49:a7:bd:8f:ad:
                    82:aa:5c:ae:6d:02:69:35:58:3c:08:5c:61:72:98:
                    cc:79:cd:70:1c:24:0d:2b:9e:0a:a9:91:94:c5:31:
                    60:a0:ed:d6:b2:bc:e5:1f:0a:91:c5:4a:ed:de:6e:
                    50:e8:f6:6f:bd:49:7f:28:57:b4:ce:e0:55:55:a0:
                    c5:f4:f5:40:61:23:69:6c:d2:3e:ee:78:c3:71:75:
                    17:c6:b3:99:19:0c:14:fe:d9:3a:0e:5c:51:21:30:
                    cd:cd:9d:ad:d1:a0:ba:8f:f7:45:4f:0a:a6:a6:69:
                    91:c0:a3:7e:6f:10:c9:5f:ad:21:79:8a:50:88:0d:
                    17:8c:c7:e7:f8:70:56:f0:b0:97:2a:0a:6b:7b:d2:
                    59:43
                Exponent: 65537 (0x10001)
        X509v3 extensions:
            X509v3 Basic Constraints: 
                CA:FALSE
            X509v3 Subject Key Identifier: 
                40:2B:24:4B:F5:F9:E9:18:E5:6C:59:BA:B5:D6:F4:C1:8D:71:07:9B
            X509v3 Authority Key Identifier: 
                keyid:0E:33:82:DE:B3:32:8A:A7:DB:B2:C7:9D:28:4D:F3:7B:AB:A0:31:8C
                DirName:/CN=ca.vpn.iwe.cloud
                serial:89:A4:6D:17:37:78:20:66

            X509v3 Extended Key Usage: 
                TLS Web Client Authentication
            X509v3 Key Usage: 
                Digital Signature
    Signature Algorithm: sha256WithRSAEncryption
         8d:97:c0:7f:60:92:72:c1:4f:96:ba:99:7c:92:ed:d8:a4:c6:
         8e:51:9b:f2:d4:11:ec:90:59:27:eb:de:f9:87:c2:42:00:fc:
         bd:7f:0e:c7:0e:01:5f:46:87:96:79:6c:39:d2:5d:e3:93:42:
         be:25:0b:8c:52:77:de:5d:ce:a2:2b:cd:0e:29:5f:72:07:0c:
         97:ac:45:91:bf:db:54:5a:59:96:7d:5d:24:7f:0f:7c:47:ff:
         0f:20:80:81:2f:1f:06:34:e9:4e:e0:16:47:f7:ee:d1:c4:d3:
         7b:74:a9:2a:37:d8:a8:80:d6:f9:22:76:a6:b4:cb:cd:27:a7:
         1e:c8:06:4a:4d:f0:63:a1:7e:35:a0:a0:72:c2:83:31:d9:71:
         28:16:60:d4:0f:0f:5c:00:cb:f8:aa:bb:e4:58:5e:40:80:a0:
         1f:29:7d:21:64:10:03:d6:6d:cb:ed:14:00:6d:55:d1:eb:9a:
         24:47:5e:c4:9d:33:ee:85:c8:b6:57:a5:7a:4e:e5:3c:12:92:
         6b:c3:d5:cf:59:ca:97:80:74:7d:8e:1d:74:6e:f7:a3:ef:3d:
         73:85:aa:2b:92:a3:3c:0f:0c:32:2c:5f:21:2a:76:35:ab:fb:
         ae:1e:2c:50:c6:b2:0e:02:d7:38:8a:76:ac:d3:45:17:96:ed:
         c0:7e:ea:b5
-----BEGIN CERTIFICATE-----
MIIDcjCCAlqgAwIBAgIRAKxPR1mTzjDM7Ex3vyqLPtUwDQYJKoZIhvcNAQELBQAw
GzEZMBcGA1UEAwwQY2EudnBuLml3ZS5jbG91ZDAeFw0xODAzMDcxNTA5NDJaFw0y
ODAzMDQxNTA5NDJaMC8xLTArBgNVBAMMJDE4NjM1MmJhLTE1YzQtNDBmZC1hMmEy
LWJhYjc2Njg0NmRhNzCCASIwDQYJKoZIhvcNAQEBBQADggEPADCCAQoCggEBAK6y
iw82V/Vu/IeBW6hTzK//slrxnrLpw1at8lLJqo9ug4aHSFMVSjmKltXq5EvrwbZ5
FtwQRYRbqBfd1Rmny0gk2MUyTkHOLww0dcyO2ZtsGCtY8DGWuAO5qIUEBB0VNKfa
0DCzxziEQWF4iTxWK87Sl0mnvY+tgqpcrm0CaTVYPAhcYXKYzHnNcBwkDSueCqmR
lMUxYKDt1rK85R8KkcVK7d5uUOj2b71JfyhXtM7gVVWgxfT1QGEjaWzSPu54w3F1
F8azmRkMFP7ZOg5cUSEwzc2drdGguo/3RU8KpqZpkcCjfm8QyV+tIXmKUIgNF4zH
5/hwVvCwlyoKa3vSWUMCAwEAAaOBnDCBmTAJBgNVHRMEAjAAMB0GA1UdDgQWBBRA
KyRL9fnpGOVsWbq11vTBjXEHmzBLBgNVHSMERDBCgBQOM4LeszKKp9uyx50oTfN7
q6AxjKEfpB0wGzEZMBcGA1UEAwwQY2EudnBuLml3ZS5jbG91ZIIJAImkbRc3eCBm
MBMGA1UdJQQMMAoGCCsGAQUFBwMCMAsGA1UdDwQEAwIHgDANBgkqhkiG9w0BAQsF
AAOCAQEAjZfAf2CScsFPlrqZfJLt2KTGjlGb8tQR7JBZJ+ve+YfCQgD8vX8Oxw4B
X0aHlnlsOdJd45NCviULjFJ33l3OoivNDilfcgcMl6xFkb/bVFpZln1dJH8PfEf/
DyCAgS8fBjTpTuAWR/fu0cTTe3SpKjfYqIDW+SJ2prTLzSenHsgGSk3wY6F+NaCg
csKDMdlxKBZg1A8PXADL+Kq75FheQICgHyl9IWQQA9Zty+0UAG1V0euaJEdexJ0z
7oXItlelek7lPBKSa8PVz1nKl4B0fY4ddG73o+89c4WqK5KjPA8MMixfISp2Nav7
rh4sUMayDgLXOIp2rNNFF5btwH7qtQ==
-----END CERTIFICATE-----
