Certificate:
    Data:
        Version: 3 (0x2)
        Serial Number:
            ac:4f:47:59:93:ce:30:cc:ec:4c:77:bf:2a:8b:3e:fd
    Signature Algorithm: sha256WithRSAEncryption
        Issuer: CN=ca.vpn.iwe.cloud
        Validity
            Not Before: Mar 29 20:36:18 2018 GMT
            Not After : Mar 26 20:36:18 2028 GMT
        Subject: CN=7bc7322e8d3d4af383a45e52d44394a2
        Subject Public Key Info:
            Public Key Algorithm: rsaEncryption
                Public-Key: (2048 bit)
                Modulus:
                    00:bf:b2:f6:23:9f:ba:f9:54:fc:d2:22:58:02:11:
                    e4:e9:54:23:1e:cf:d2:f6:5d:05:d0:ce:cf:f1:f3:
                    73:d4:3f:ef:e9:36:94:77:c7:67:f5:c3:85:4d:b2:
                    41:1f:6c:71:a0:d8:de:78:4d:dd:31:37:05:f5:ff:
                    13:b9:b0:de:4d:32:bd:74:59:9c:06:6b:71:c1:f2:
                    27:b4:0e:51:02:59:53:03:8a:6e:b8:e8:79:c9:f4:
                    ef:72:ac:77:69:b9:d2:c0:d0:2b:2f:30:10:40:45:
                    bd:25:35:88:a2:5c:d5:b3:4e:7d:c7:2b:30:4c:6a:
                    13:4b:db:6e:6d:15:01:4b:a5:06:79:43:44:7a:f5:
                    f8:bc:ae:59:3b:29:8d:32:69:9f:41:8f:9b:40:0e:
                    b0:2a:c2:23:7b:cf:45:9c:a7:4c:0e:eb:aa:80:79:
                    8a:8c:23:7b:be:9f:b0:30:a8:f5:68:1d:88:45:41:
                    b2:f2:16:fe:2c:1d:f2:c4:94:af:13:c8:1c:26:52:
                    69:72:91:86:b6:83:ee:e3:57:54:8c:a1:f7:18:e0:
                    a4:74:ca:a9:e7:dc:82:29:b5:b2:b2:76:67:e6:62:
                    af:43:70:9d:16:98:ac:93:29:0b:eb:68:1e:44:67:
                    39:99:2c:12:3e:dd:c7:54:54:16:10:e5:20:ad:83:
                    9a:31
                Exponent: 65537 (0x10001)
        X509v3 extensions:
            X509v3 Basic Constraints: 
                CA:FALSE
            X509v3 Subject Key Identifier: 
                EE:B8:44:2F:2A:BE:CE:6A:17:13:D5:52:F8:16:7C:8F:2C:29:24:91
            X509v3 Authority Key Identifier: 
                keyid:0E:33:82:DE:B3:32:8A:A7:DB:B2:C7:9D:28:4D:F3:7B:AB:A0:31:8C
                DirName:/CN=ca.vpn.iwe.cloud
                serial:89:A4:6D:17:37:78:20:66

            X509v3 Extended Key Usage: 
                TLS Web Client Authentication
            X509v3 Key Usage: 
                Digital Signature
    Signature Algorithm: sha256WithRSAEncryption
         98:c9:98:9e:e7:c5:04:d5:9d:30:79:64:8d:1e:ca:2f:3b:34:
         6c:3a:99:e7:3d:9f:51:b4:2e:3d:41:bd:24:b6:3e:0e:51:bf:
         f4:38:8f:7c:29:9f:03:1f:54:dd:42:f7:ee:d1:6d:9d:04:68:
         7a:5d:ae:0f:ba:74:97:55:0a:7a:b2:54:6f:be:86:dc:0b:ec:
         35:52:bf:c7:b2:0f:14:b1:b6:65:7c:08:f5:97:17:12:ff:4a:
         c2:3d:f7:91:f3:40:08:2b:a6:9b:82:38:df:90:50:b8:1c:9c:
         48:8a:dd:9a:68:25:05:af:82:35:86:48:1e:24:c7:c7:50:8d:
         ce:92:21:6f:80:d7:6f:46:4b:14:6d:1b:fc:db:52:d8:f8:fa:
         fc:a4:d2:ba:b2:e2:6c:a6:17:a8:8a:b2:45:65:48:58:92:3a:
         ba:2f:d3:b3:2b:30:60:a8:0c:3f:f4:d9:05:60:a9:ef:39:a3:
         d1:e6:3c:ad:8e:a4:64:cc:b3:d2:63:28:f0:5c:e5:c2:47:6d:
         f4:08:8a:25:9f:3d:1a:f8:6e:bb:3b:80:1a:1c:60:bc:03:27:
         c6:d7:9a:fd:3e:00:bd:52:50:8c:47:18:f5:af:ac:61:e2:43:
         ff:5c:ae:eb:c3:cc:81:45:b6:d9:99:b4:0e:02:46:9c:7b:67:
         d7:76:9f:ad
-----BEGIN CERTIFICATE-----
MIIDbjCCAlagAwIBAgIRAKxPR1mTzjDM7Ex3vyqLPv0wDQYJKoZIhvcNAQELBQAw
GzEZMBcGA1UEAwwQY2EudnBuLml3ZS5jbG91ZDAeFw0xODAzMjkyMDM2MThaFw0y
ODAzMjYyMDM2MThaMCsxKTAnBgNVBAMMIDdiYzczMjJlOGQzZDRhZjM4M2E0NWU1
MmQ0NDM5NGEyMIIBIjANBgkqhkiG9w0BAQEFAAOCAQ8AMIIBCgKCAQEAv7L2I5+6
+VT80iJYAhHk6VQjHs/S9l0F0M7P8fNz1D/v6TaUd8dn9cOFTbJBH2xxoNjeeE3d
MTcF9f8TubDeTTK9dFmcBmtxwfIntA5RAllTA4puuOh5yfTvcqx3abnSwNArLzAQ
QEW9JTWIolzVs059xyswTGoTS9tubRUBS6UGeUNEevX4vK5ZOymNMmmfQY+bQA6w
KsIje89FnKdMDuuqgHmKjCN7vp+wMKj1aB2IRUGy8hb+LB3yxJSvE8gcJlJpcpGG
toPu41dUjKH3GOCkdMqp59yCKbWysnZn5mKvQ3CdFpiskykL62geRGc5mSwSPt3H
VFQWEOUgrYOaMQIDAQABo4GcMIGZMAkGA1UdEwQCMAAwHQYDVR0OBBYEFO64RC8q
vs5qFxPVUvgWfI8sKSSRMEsGA1UdIwREMEKAFA4zgt6zMoqn27LHnShN83uroDGM
oR+kHTAbMRkwFwYDVQQDDBBjYS52cG4uaXdlLmNsb3VkggkAiaRtFzd4IGYwEwYD
VR0lBAwwCgYIKwYBBQUHAwIwCwYDVR0PBAQDAgeAMA0GCSqGSIb3DQEBCwUAA4IB
AQCYyZie58UE1Z0weWSNHsovOzRsOpnnPZ9RtC49Qb0ktj4OUb/0OI98KZ8DH1Td
Qvfu0W2dBGh6Xa4PunSXVQp6slRvvobcC+w1Ur/Hsg8UsbZlfAj1lxcS/0rCPfeR
80AIK6abgjjfkFC4HJxIit2aaCUFr4I1hkgeJMfHUI3OkiFvgNdvRksUbRv821LY
+Pr8pNK6suJspheoirJFZUhYkjq6L9OzKzBgqAw/9NkFYKnvOaPR5jytjqRkzLPS
YyjwXOXCR230CIolnz0a+G67O4AaHGC8AyfG15r9PgC9UlCMRxj1r6xh4kP/XK7r
w8yBRbbZmbQOAkace2fXdp+t
-----END CERTIFICATE-----
