Certificate:
    Data:
        Version: 3 (0x2)
        Serial Number:
            ac:4f:47:59:93:ce:30:cc:ec:4c:77:bf:2a:8b:3e:d7
    Signature Algorithm: sha256WithRSAEncryption
        Issuer: CN=ca.vpn.iwe.cloud
        Validity
            Not Before: Mar  7 15:42:07 2018 GMT
            Not After : Mar  4 15:42:07 2028 GMT
        Subject: CN=5075d894-d5d8-4ebf-95a7-c1190f4f0fbe
        Subject Public Key Info:
            Public Key Algorithm: rsaEncryption
                Public-Key: (2048 bit)
                Modulus:
                    00:c1:68:9c:7f:23:55:8c:da:a4:e5:54:ab:b3:55:
                    57:f5:29:34:38:93:6c:40:58:ef:3c:d3:9a:28:d5:
                    39:24:c8:41:d9:e2:ab:67:75:5a:13:5f:82:ea:c7:
                    b5:3a:db:bf:81:11:42:c0:c3:d7:13:1e:9e:a3:1a:
                    ae:df:f3:f4:01:80:23:d5:f3:79:94:cc:f9:7a:33:
                    a0:8e:73:df:c5:ee:51:75:09:65:75:59:92:42:bc:
                    ac:c4:65:e5:16:b4:00:7c:82:df:2a:ed:c6:9c:d7:
                    49:8d:c5:a6:8a:89:11:f0:e8:74:88:e1:6d:1c:6b:
                    ce:c7:eb:c3:73:df:f0:68:46:1e:c0:aa:88:8d:d7:
                    ae:75:c2:09:49:5f:9c:d4:fc:3e:f6:a2:8d:9a:66:
                    08:fe:9f:c9:35:c5:d2:40:86:49:55:fc:c7:d5:63:
                    cb:69:95:b5:d0:1f:95:4d:26:47:e1:7a:45:ce:7b:
                    5a:50:d3:00:29:dd:95:20:04:ae:61:ba:19:4c:2f:
                    0b:c3:0e:94:24:11:88:ae:04:52:67:98:39:0b:24:
                    33:a6:23:fd:d5:ff:24:e8:f1:88:59:fa:a5:6f:4a:
                    e6:59:8e:50:7b:34:57:c4:81:d2:4b:ae:16:6e:de:
                    33:75:07:fc:d4:69:96:e1:7d:07:c0:b6:08:b2:f9:
                    1c:15
                Exponent: 65537 (0x10001)
        X509v3 extensions:
            X509v3 Basic Constraints: 
                CA:FALSE
            X509v3 Subject Key Identifier: 
                BE:91:A9:35:E6:BB:9E:7A:CB:E1:51:B6:AC:0E:A9:D4:FA:3B:4B:B4
            X509v3 Authority Key Identifier: 
                keyid:0E:33:82:DE:B3:32:8A:A7:DB:B2:C7:9D:28:4D:F3:7B:AB:A0:31:8C
                DirName:/CN=ca.vpn.iwe.cloud
                serial:89:A4:6D:17:37:78:20:66

            X509v3 Extended Key Usage: 
                TLS Web Client Authentication
            X509v3 Key Usage: 
                Digital Signature
    Signature Algorithm: sha256WithRSAEncryption
         93:f0:07:18:a6:2f:d5:b9:0f:00:6d:ec:56:09:32:8c:ef:0f:
         fa:b0:bc:3b:0c:c9:dc:c7:75:bb:42:6b:dc:b5:c8:99:30:ad:
         a2:da:ed:73:21:14:31:f6:b6:c3:73:fa:25:76:01:25:59:75:
         7e:f5:ab:0c:88:f3:f6:f5:39:9e:bb:2b:62:09:50:c4:4a:b5:
         43:90:0a:35:0a:5b:f6:26:d0:67:88:58:ae:16:20:00:c2:66:
         39:ff:80:e6:32:83:f5:ab:53:5a:0b:fa:57:eb:9d:d9:ac:cd:
         6e:ca:0c:8f:a2:d0:d5:1d:4c:66:00:3b:59:49:0e:eb:32:1f:
         46:4c:c1:33:ae:3f:9c:5e:01:03:37:f6:40:03:43:df:01:60:
         b3:b4:97:07:f2:09:ac:51:96:d2:99:59:1b:95:7e:03:d3:3f:
         c0:87:60:37:97:f7:d0:08:c6:1a:1b:d3:1e:60:f0:5b:d8:72:
         37:3a:bd:6b:18:82:c1:f0:c6:7d:ba:9d:d1:ae:f1:2f:41:52:
         5a:33:a6:9d:34:c0:71:3e:fd:a0:ac:6f:3d:7a:65:af:26:60:
         15:02:cf:88:78:e4:ad:00:ef:b1:6b:c7:73:80:9a:93:e9:20:
         61:70:56:b9:1d:a2:ce:b0:bb:bf:27:06:aa:8e:b8:61:b2:1a:
         44:26:bc:63
-----BEGIN CERTIFICATE-----
MIIDcjCCAlqgAwIBAgIRAKxPR1mTzjDM7Ex3vyqLPtcwDQYJKoZIhvcNAQELBQAw
GzEZMBcGA1UEAwwQY2EudnBuLml3ZS5jbG91ZDAeFw0xODAzMDcxNTQyMDdaFw0y
ODAzMDQxNTQyMDdaMC8xLTArBgNVBAMMJDUwNzVkODk0LWQ1ZDgtNGViZi05NWE3
LWMxMTkwZjRmMGZiZTCCASIwDQYJKoZIhvcNAQEBBQADggEPADCCAQoCggEBAMFo
nH8jVYzapOVUq7NVV/UpNDiTbEBY7zzTmijVOSTIQdniq2d1WhNfgurHtTrbv4ER
QsDD1xMenqMart/z9AGAI9XzeZTM+XozoI5z38XuUXUJZXVZkkK8rMRl5Ra0AHyC
3yrtxpzXSY3FpoqJEfDodIjhbRxrzsfrw3Pf8GhGHsCqiI3XrnXCCUlfnNT8Pvai
jZpmCP6fyTXF0kCGSVX8x9Vjy2mVtdAflU0mR+F6Rc57WlDTACndlSAErmG6GUwv
C8MOlCQRiK4EUmeYOQskM6Yj/dX/JOjxiFn6pW9K5lmOUHs0V8SB0kuuFm7eM3UH
/NRpluF9B8C2CLL5HBUCAwEAAaOBnDCBmTAJBgNVHRMEAjAAMB0GA1UdDgQWBBS+
kak15rueesvhUbasDqnU+jtLtDBLBgNVHSMERDBCgBQOM4LeszKKp9uyx50oTfN7
q6AxjKEfpB0wGzEZMBcGA1UEAwwQY2EudnBuLml3ZS5jbG91ZIIJAImkbRc3eCBm
MBMGA1UdJQQMMAoGCCsGAQUFBwMCMAsGA1UdDwQEAwIHgDANBgkqhkiG9w0BAQsF
AAOCAQEAk/AHGKYv1bkPAG3sVgkyjO8P+rC8OwzJ3Md1u0Jr3LXImTCtotrtcyEU
Mfa2w3P6JXYBJVl1fvWrDIjz9vU5nrsrYglQxEq1Q5AKNQpb9ibQZ4hYrhYgAMJm
Of+A5jKD9atTWgv6V+ud2azNbsoMj6LQ1R1MZgA7WUkO6zIfRkzBM64/nF4BAzf2
QAND3wFgs7SXB/IJrFGW0plZG5V+A9M/wIdgN5f30AjGGhvTHmDwW9hyNzq9axiC
wfDGfbqd0a7xL0FSWjOmnTTAcT79oKxvPXplryZgFQLPiHjkrQDvsWvHc4Cak+kg
YXBWuR2izrC7vycGqo64YbIaRCa8Yw==
-----END CERTIFICATE-----
