Certificate:
    Data:
        Version: 3 (0x2)
        Serial Number:
            ac:4f:47:59:93:ce:30:cc:ec:4c:77:bf:2a:8b:3e:e6
    Signature Algorithm: sha256WithRSAEncryption
        Issuer: CN=ca.vpn.iwe.cloud
        Validity
            Not Before: Mar 29 17:46:36 2018 GMT
            Not After : Mar 26 17:46:36 2028 GMT
        Subject: CN=e52a07ddc72e4b35beaa271d03d82f0ee
        Subject Public Key Info:
            Public Key Algorithm: rsaEncryption
                Public-Key: (2048 bit)
                Modulus:
                    00:e9:1c:2c:57:ab:5e:83:34:c2:e1:4c:f3:55:b9:
                    a6:d3:df:f0:9f:54:87:4e:76:c5:0a:31:53:2b:75:
                    3c:4a:d4:9b:c6:f6:ad:e8:22:a3:5a:73:e9:e3:05:
                    7a:cf:e3:5c:50:1a:be:f7:80:fc:c3:5c:a6:ab:21:
                    41:15:07:47:15:b7:4e:b6:10:3e:8b:48:18:19:06:
                    97:0b:5d:db:e8:56:22:d5:49:a6:a6:71:53:8a:da:
                    32:58:30:7c:50:c2:2c:f2:99:6f:56:45:ba:c4:54:
                    cc:5c:26:e5:0b:0f:3e:37:b1:21:07:30:ee:08:41:
                    51:75:3d:54:f6:54:15:38:f6:84:79:51:be:87:b7:
                    b5:5a:07:a1:16:3e:eb:e4:ac:c7:b9:67:89:d8:4e:
                    1d:71:72:3b:cc:d2:d4:48:bf:ff:39:d4:ce:f8:dc:
                    92:36:cd:50:b4:1a:f3:61:00:5d:d1:3c:6a:7f:b2:
                    a5:ed:a1:2c:f3:45:20:05:ae:52:42:67:ab:94:3e:
                    51:f2:50:bd:79:1b:e3:39:0b:02:90:16:7b:8b:65:
                    17:f8:68:00:1a:a8:60:9c:f0:9d:d6:94:88:2a:65:
                    64:88:bd:b5:87:bc:57:b2:9e:e3:bb:a4:14:86:5e:
                    79:69:4f:e1:0f:21:14:97:3a:61:f1:f3:7f:a9:92:
                    e3:5d
                Exponent: 65537 (0x10001)
        X509v3 extensions:
            X509v3 Basic Constraints: 
                CA:FALSE
            X509v3 Subject Key Identifier: 
                3F:BB:6E:FE:46:AA:5B:36:AF:48:1E:50:50:A5:50:92:CA:B3:AB:45
            X509v3 Authority Key Identifier: 
                keyid:0E:33:82:DE:B3:32:8A:A7:DB:B2:C7:9D:28:4D:F3:7B:AB:A0:31:8C
                DirName:/CN=ca.vpn.iwe.cloud
                serial:89:A4:6D:17:37:78:20:66

            X509v3 Extended Key Usage: 
                TLS Web Client Authentication
            X509v3 Key Usage: 
                Digital Signature
    Signature Algorithm: sha256WithRSAEncryption
         48:c6:a5:e7:65:72:c2:99:97:0d:86:2c:5f:58:38:ca:0b:39:
         20:11:2b:de:28:77:ca:b1:d2:35:7b:d8:db:23:3d:82:96:43:
         8c:3c:35:b7:ab:3c:86:79:b3:a4:5d:db:80:8d:96:c6:29:b2:
         e9:96:62:33:e7:c0:ce:e4:93:68:ff:4e:4b:f8:3b:6c:d5:f3:
         3f:c1:d0:0e:17:b2:6e:3c:9e:36:91:5f:42:00:ce:c7:d7:bf:
         94:2a:72:55:a8:f2:26:fd:49:2a:b3:1a:d0:84:02:a2:16:ce:
         c2:58:29:36:5f:9c:9a:83:5f:32:41:10:86:b0:83:00:b2:e0:
         1f:ac:37:02:b2:c3:4e:04:1f:c7:e0:54:bc:c3:68:be:1c:00:
         66:77:da:ca:d5:28:f2:99:68:eb:cb:8c:8c:e2:28:43:25:f3:
         cd:bb:ce:74:b1:e8:89:eb:40:6d:fe:22:b3:a8:9d:ec:42:4d:
         52:13:e6:e4:88:8c:4f:0e:81:e0:75:cc:81:d2:3b:ba:58:fa:
         29:90:a5:e1:aa:33:be:35:99:55:c4:79:8f:14:e7:62:25:27:
         b1:d6:c0:d4:f0:42:1c:a3:71:89:a8:8b:cc:bd:85:ad:c1:97:
         78:40:a3:e4:50:04:f9:9c:49:cf:e3:8c:58:35:7e:7d:71:32:
         cb:dc:21:7e
-----BEGIN CERTIFICATE-----
MIIDbzCCAlegAwIBAgIRAKxPR1mTzjDM7Ex3vyqLPuYwDQYJKoZIhvcNAQELBQAw
GzEZMBcGA1UEAwwQY2EudnBuLml3ZS5jbG91ZDAeFw0xODAzMjkxNzQ2MzZaFw0y
ODAzMjYxNzQ2MzZaMCwxKjAoBgNVBAMMIWU1MmEwN2RkYzcyZTRiMzViZWFhMjcx
ZDAzZDgyZjBlZTCCASIwDQYJKoZIhvcNAQEBBQADggEPADCCAQoCggEBAOkcLFer
XoM0wuFM81W5ptPf8J9Uh052xQoxUyt1PErUm8b2regio1pz6eMFes/jXFAavveA
/MNcpqshQRUHRxW3TrYQPotIGBkGlwtd2+hWItVJpqZxU4raMlgwfFDCLPKZb1ZF
usRUzFwm5QsPPjexIQcw7ghBUXU9VPZUFTj2hHlRvoe3tVoHoRY+6+Ssx7lnidhO
HXFyO8zS1Ei//znUzvjckjbNULQa82EAXdE8an+ype2hLPNFIAWuUkJnq5Q+UfJQ
vXkb4zkLApAWe4tlF/hoABqoYJzwndaUiCplZIi9tYe8V7Ke47ukFIZeeWlP4Q8h
FJc6YfHzf6mS410CAwEAAaOBnDCBmTAJBgNVHRMEAjAAMB0GA1UdDgQWBBQ/u27+
RqpbNq9IHlBQpVCSyrOrRTBLBgNVHSMERDBCgBQOM4LeszKKp9uyx50oTfN7q6Ax
jKEfpB0wGzEZMBcGA1UEAwwQY2EudnBuLml3ZS5jbG91ZIIJAImkbRc3eCBmMBMG
A1UdJQQMMAoGCCsGAQUFBwMCMAsGA1UdDwQEAwIHgDANBgkqhkiG9w0BAQsFAAOC
AQEASMal52VywpmXDYYsX1g4ygs5IBEr3ih3yrHSNXvY2yM9gpZDjDw1t6s8hnmz
pF3bgI2Wximy6ZZiM+fAzuSTaP9OS/g7bNXzP8HQDheybjyeNpFfQgDOx9e/lCpy
VajyJv1JKrMa0IQCohbOwlgpNl+cmoNfMkEQhrCDALLgH6w3ArLDTgQfx+BUvMNo
vhwAZnfaytUo8plo68uMjOIoQyXzzbvOdLHoietAbf4is6id7EJNUhPm5IiMTw6B
4HXMgdI7ulj6KZCl4aozvjWZVcR5jxTnYiUnsdbA1PBCHKNxiaiLzL2FrcGXeECj
5FAE+ZxJz+OMWDV+fXEyy9whfg==
-----END CERTIFICATE-----
