Certificate:
    Data:
        Version: 3 (0x2)
        Serial Number:
            ac:4f:47:59:93:ce:30:cc:ec:4c:77:bf:2a:8b:3e:d3
    Signature Algorithm: sha256WithRSAEncryption
        Issuer: CN=ca.vpn.iwe.cloud
        Validity
            Not Before: Mar  7 14:15:32 2018 GMT
            Not After : Mar  4 14:15:32 2028 GMT
        Subject: CN=046d27da-a2aa-4e01-9f46-2bc91d132e00
        Subject Public Key Info:
            Public Key Algorithm: rsaEncryption
                Public-Key: (2048 bit)
                Modulus:
                    00:e4:05:fc:1d:ef:48:e4:a8:a2:81:cb:85:39:71:
                    a8:48:40:d5:54:15:8f:92:b6:db:0d:56:f8:ca:c2:
                    99:b1:ed:ca:68:09:81:89:a2:0e:30:a4:1f:c4:53:
                    de:9e:e4:59:50:44:6b:ee:94:54:2d:7e:c5:5d:0b:
                    a1:34:47:9b:56:a9:6b:50:a3:14:f5:cc:09:4b:7e:
                    a3:cf:75:69:57:a9:51:05:6a:c3:97:02:37:5c:c3:
                    74:6e:d6:be:08:dd:c0:67:2e:1d:d7:48:6e:eb:43:
                    99:f9:e0:bc:39:ed:84:b2:8b:00:fb:9f:b4:4e:9f:
                    7e:6f:65:01:3f:53:63:a3:3b:51:5b:f3:60:62:12:
                    cb:49:9c:c7:ac:f4:df:50:df:88:3f:d3:2b:58:e7:
                    65:30:49:c2:54:40:a3:02:b4:0a:51:82:51:12:b7:
                    56:4a:ba:27:85:81:52:80:ca:71:56:2b:6f:32:63:
                    01:ae:8a:00:f2:d2:28:8e:aa:62:70:b3:d2:26:52:
                    09:55:82:6a:b6:c7:3a:ba:1c:09:54:3e:c9:7d:32:
                    27:34:81:c5:22:85:c0:d9:3d:5c:3f:85:d1:9a:93:
                    76:89:0f:60:19:92:11:c8:12:6a:01:00:ee:a9:79:
                    e4:20:e0:9b:c0:f6:ef:69:1d:a9:74:7b:7a:7c:2b:
                    45:ef
                Exponent: 65537 (0x10001)
        X509v3 extensions:
            X509v3 Basic Constraints: 
                CA:FALSE
            X509v3 Subject Key Identifier: 
                16:D6:1A:D8:C3:58:BF:9E:0A:67:D2:57:75:16:40:ED:15:84:EF:AC
            X509v3 Authority Key Identifier: 
                keyid:0E:33:82:DE:B3:32:8A:A7:DB:B2:C7:9D:28:4D:F3:7B:AB:A0:31:8C
                DirName:/CN=ca.vpn.iwe.cloud
                serial:89:A4:6D:17:37:78:20:66

            X509v3 Extended Key Usage: 
                TLS Web Client Authentication
            X509v3 Key Usage: 
                Digital Signature
    Signature Algorithm: sha256WithRSAEncryption
         33:3f:a8:63:70:5e:7e:e2:7c:6e:92:83:fd:be:1d:11:6b:04:
         ab:bd:9e:6d:4d:1d:b1:23:cc:bb:e6:7b:a8:15:c2:b0:74:65:
         6b:1c:64:61:81:72:57:b9:3c:62:c8:d3:5d:7d:7f:c2:0b:88:
         43:f9:69:54:56:c6:d8:a6:ee:c7:16:6f:ff:88:76:d5:73:71:
         15:55:97:da:5c:b3:ca:0e:65:8b:38:8e:12:03:f2:cb:fb:f6:
         17:27:1b:ce:21:55:19:93:f7:b1:62:70:9d:f6:4a:7a:54:fb:
         52:89:1e:1b:48:55:fc:84:db:19:e3:5f:24:c0:97:7b:57:c2:
         a5:fa:f4:8d:b9:55:4d:dd:05:39:26:c1:78:75:a2:b3:99:26:
         94:7b:c3:27:78:5e:45:76:12:b1:59:df:6b:d7:47:38:fd:a5:
         de:02:53:13:9f:13:2d:58:44:9a:a4:fa:fa:28:9e:cc:4f:4a:
         e0:74:63:55:db:23:e1:85:1b:b4:2f:62:a0:3d:92:18:2f:d5:
         97:9c:ce:e6:ee:65:df:42:82:bb:37:30:41:e6:e6:81:ab:87:
         5c:8b:b6:fa:5d:8b:85:7f:15:89:91:11:8d:e5:8f:7a:22:91:
         90:d5:04:53:11:e1:b7:ae:78:af:97:64:6b:0c:54:03:4b:ab:
         45:a0:69:1b
-----BEGIN CERTIFICATE-----
MIIDcjCCAlqgAwIBAgIRAKxPR1mTzjDM7Ex3vyqLPtMwDQYJKoZIhvcNAQELBQAw
GzEZMBcGA1UEAwwQY2EudnBuLml3ZS5jbG91ZDAeFw0xODAzMDcxNDE1MzJaFw0y
ODAzMDQxNDE1MzJaMC8xLTArBgNVBAMMJDA0NmQyN2RhLWEyYWEtNGUwMS05ZjQ2
LTJiYzkxZDEzMmUwMDCCASIwDQYJKoZIhvcNAQEBBQADggEPADCCAQoCggEBAOQF
/B3vSOSoooHLhTlxqEhA1VQVj5K22w1W+MrCmbHtymgJgYmiDjCkH8RT3p7kWVBE
a+6UVC1+xV0LoTRHm1apa1CjFPXMCUt+o891aVepUQVqw5cCN1zDdG7WvgjdwGcu
HddIbutDmfngvDnthLKLAPuftE6ffm9lAT9TY6M7UVvzYGISy0mcx6z031DfiD/T
K1jnZTBJwlRAowK0ClGCURK3Vkq6J4WBUoDKcVYrbzJjAa6KAPLSKI6qYnCz0iZS
CVWCarbHOrocCVQ+yX0yJzSBxSKFwNk9XD+F0ZqTdokPYBmSEcgSagEA7ql55CDg
m8D272kdqXR7enwrRe8CAwEAAaOBnDCBmTAJBgNVHRMEAjAAMB0GA1UdDgQWBBQW
1hrYw1i/ngpn0ld1FkDtFYTvrDBLBgNVHSMERDBCgBQOM4LeszKKp9uyx50oTfN7
q6AxjKEfpB0wGzEZMBcGA1UEAwwQY2EudnBuLml3ZS5jbG91ZIIJAImkbRc3eCBm
MBMGA1UdJQQMMAoGCCsGAQUFBwMCMAsGA1UdDwQEAwIHgDANBgkqhkiG9w0BAQsF
AAOCAQEAMz+oY3BefuJ8bpKD/b4dEWsEq72ebU0dsSPMu+Z7qBXCsHRlaxxkYYFy
V7k8YsjTXX1/wguIQ/lpVFbG2KbuxxZv/4h21XNxFVWX2lyzyg5liziOEgPyy/v2
FycbziFVGZP3sWJwnfZKelT7UokeG0hV/ITbGeNfJMCXe1fCpfr0jblVTd0FOSbB
eHWis5kmlHvDJ3heRXYSsVnfa9dHOP2l3gJTE58TLVhEmqT6+iiezE9K4HRjVdsj
4YUbtC9ioD2SGC/Vl5zO5u5l30KCuzcwQebmgauHXIu2+l2LhX8ViZERjeWPeiKR
kNUEUxHht654r5dkawxUA0urRaBpGw==
-----END CERTIFICATE-----
