Certificate:
    Data:
        Version: 3 (0x2)
        Serial Number:
            ac:4f:47:59:93:ce:30:cc:ec:4c:77:bf:2a:8b:3e:f0
    Signature Algorithm: sha256WithRSAEncryption
        Issuer: CN=ca.vpn.iwe.cloud
        Validity
            Not Before: Mar 29 17:57:24 2018 GMT
            Not After : Mar 26 17:57:24 2028 GMT
        Subject: CN=e52a07ddc72e4b35beaa271d03d82f0eo
        Subject Public Key Info:
            Public Key Algorithm: rsaEncryption
                Public-Key: (2048 bit)
                Modulus:
                    00:ac:7a:7a:cd:98:f7:3d:e9:a7:1d:bb:ef:f2:83:
                    45:ee:19:e0:b2:83:72:2d:53:49:8b:41:0f:00:92:
                    1a:99:6e:41:0c:97:1e:2f:dd:46:24:84:d3:36:d6:
                    4e:6c:9d:b1:14:65:11:f7:cf:09:0b:fe:38:ed:e2:
                    3c:a6:e0:31:54:21:49:c8:f6:85:d3:c4:c5:6f:7c:
                    18:52:a8:12:f3:b6:f0:fc:94:e3:e1:cd:51:be:42:
                    4c:eb:a5:64:14:77:f5:b4:cf:bd:c5:5a:6c:70:2e:
                    8b:26:01:e5:b3:aa:2a:a8:82:14:7b:4a:a4:cd:92:
                    22:1a:2b:36:57:31:25:76:18:ac:4f:a2:16:7e:04:
                    d4:a0:b5:7a:ab:68:a6:cb:be:9c:e8:88:95:32:92:
                    38:de:1d:b4:f9:b9:a5:bc:c6:8c:20:2d:be:e3:54:
                    22:d5:c2:31:65:ae:9e:05:7c:24:b5:b2:fd:cb:52:
                    01:e9:3d:4a:8c:61:b4:72:e5:6c:6a:59:23:9d:08:
                    3a:a7:dc:cc:42:3a:07:d2:b8:12:af:65:12:44:1e:
                    a5:ce:cf:2d:6d:34:39:7c:ff:75:b2:7e:59:55:66:
                    c4:12:30:52:d0:f7:aa:72:ac:05:01:cd:aa:ef:8d:
                    25:12:e2:e3:63:bc:49:29:9f:39:6f:9b:0c:fe:52:
                    11:21
                Exponent: 65537 (0x10001)
        X509v3 extensions:
            X509v3 Basic Constraints: 
                CA:FALSE
            X509v3 Subject Key Identifier: 
                C3:F8:D1:79:3E:F9:76:CE:F9:89:F6:83:8C:40:3C:6A:93:BA:1F:2A
            X509v3 Authority Key Identifier: 
                keyid:0E:33:82:DE:B3:32:8A:A7:DB:B2:C7:9D:28:4D:F3:7B:AB:A0:31:8C
                DirName:/CN=ca.vpn.iwe.cloud
                serial:89:A4:6D:17:37:78:20:66

            X509v3 Extended Key Usage: 
                TLS Web Client Authentication
            X509v3 Key Usage: 
                Digital Signature
    Signature Algorithm: sha256WithRSAEncryption
         4b:dd:0d:34:e6:0a:0b:17:ef:53:6e:54:0f:97:cb:49:b0:28:
         3c:3e:97:89:0e:60:04:29:bf:9f:b9:61:de:d4:20:bd:70:37:
         e8:2d:27:6f:d8:f5:6c:05:5b:72:72:54:3c:45:c4:4e:de:f9:
         e7:b6:d3:1d:72:c5:43:14:d4:9b:9e:7c:b0:08:d7:21:2a:a2:
         c0:51:bc:d1:b7:b8:f6:71:ad:89:2e:0d:df:47:31:b2:b9:0e:
         d6:7c:29:ef:1d:70:9d:21:e0:6b:df:b6:ed:57:5f:a0:54:04:
         4b:f9:fe:87:18:c8:01:ff:92:56:2f:06:e4:53:ec:eb:97:ad:
         a6:5f:27:a5:46:68:31:1b:45:ed:75:a2:a5:55:dc:48:dd:af:
         8d:54:23:7b:68:89:f1:07:6d:6e:b7:38:69:f1:4e:4f:09:f2:
         4d:3b:0d:0e:ca:82:69:a9:f9:aa:a9:7a:b5:77:aa:8c:6b:04:
         1d:0a:06:32:b4:45:60:84:24:c9:6c:59:07:51:ce:6f:39:47:
         a6:1b:53:52:99:9f:6f:b1:6c:f9:1f:67:2d:80:dd:b7:6e:21:
         3d:bc:2e:50:50:87:2f:84:44:d7:79:c1:2c:09:e8:c6:10:aa:
         db:1b:30:eb:18:6a:23:4b:31:5e:d1:58:b0:7d:11:1e:1f:54:
         3a:f6:80:4d
-----BEGIN CERTIFICATE-----
MIIDbzCCAlegAwIBAgIRAKxPR1mTzjDM7Ex3vyqLPvAwDQYJKoZIhvcNAQELBQAw
GzEZMBcGA1UEAwwQY2EudnBuLml3ZS5jbG91ZDAeFw0xODAzMjkxNzU3MjRaFw0y
ODAzMjYxNzU3MjRaMCwxKjAoBgNVBAMMIWU1MmEwN2RkYzcyZTRiMzViZWFhMjcx
ZDAzZDgyZjBlbzCCASIwDQYJKoZIhvcNAQEBBQADggEPADCCAQoCggEBAKx6es2Y
9z3ppx277/KDRe4Z4LKDci1TSYtBDwCSGpluQQyXHi/dRiSE0zbWTmydsRRlEffP
CQv+OO3iPKbgMVQhScj2hdPExW98GFKoEvO28PyU4+HNUb5CTOulZBR39bTPvcVa
bHAuiyYB5bOqKqiCFHtKpM2SIhorNlcxJXYYrE+iFn4E1KC1eqtopsu+nOiIlTKS
ON4dtPm5pbzGjCAtvuNUItXCMWWungV8JLWy/ctSAek9SoxhtHLlbGpZI50IOqfc
zEI6B9K4Eq9lEkQepc7PLW00OXz/dbJ+WVVmxBIwUtD3qnKsBQHNqu+NJRLi42O8
SSmfOW+bDP5SESECAwEAAaOBnDCBmTAJBgNVHRMEAjAAMB0GA1UdDgQWBBTD+NF5
Pvl2zvmJ9oOMQDxqk7ofKjBLBgNVHSMERDBCgBQOM4LeszKKp9uyx50oTfN7q6Ax
jKEfpB0wGzEZMBcGA1UEAwwQY2EudnBuLml3ZS5jbG91ZIIJAImkbRc3eCBmMBMG
A1UdJQQMMAoGCCsGAQUFBwMCMAsGA1UdDwQEAwIHgDANBgkqhkiG9w0BAQsFAAOC
AQEAS90NNOYKCxfvU25UD5fLSbAoPD6XiQ5gBCm/n7lh3tQgvXA36C0nb9j1bAVb
cnJUPEXETt7557bTHXLFQxTUm558sAjXISqiwFG80be49nGtiS4N30cxsrkO1nwp
7x1wnSHga9+27VdfoFQES/n+hxjIAf+SVi8G5FPs65etpl8npUZoMRtF7XWipVXc
SN2vjVQje2iJ8Qdtbrc4afFOTwnyTTsNDsqCaan5qql6tXeqjGsEHQoGMrRFYIQk
yWxZB1HObzlHphtTUpmfb7Fs+R9nLYDdt24hPbwuUFCHL4RE13nBLAnoxhCq2xsw
6xhqI0sxXtFYsH0RHh9UOvaATQ==
-----END CERTIFICATE-----
