Certificate:
    Data:
        Version: 3 (0x2)
        Serial Number:
            ac:4f:47:59:93:ce:30:cc:ec:4c:77:bf:2a:8b:3e:e9
    Signature Algorithm: sha256WithRSAEncryption
        Issuer: CN=ca.vpn.iwe.cloud
        Validity
            Not Before: Mar 29 17:51:17 2018 GMT
            Not After : Mar 26 17:51:17 2028 GMT
        Subject: CN=e52a07ddc72e4b35beaa271d03d82f0eh
        Subject Public Key Info:
            Public Key Algorithm: rsaEncryption
                Public-Key: (2048 bit)
                Modulus:
                    00:a8:2a:99:cc:a7:b8:5a:ec:8b:1d:f2:35:64:9c:
                    86:91:b2:6a:5a:3c:fb:41:e4:c5:4e:7b:65:34:30:
                    f1:bc:23:64:88:1a:a1:b9:9f:f5:f2:95:f3:4b:99:
                    c5:a1:9c:05:9b:b8:a9:49:b4:a3:70:e0:63:bf:35:
                    14:9f:17:34:4b:70:a1:d1:f5:21:cc:dd:6e:69:b2:
                    2d:85:d2:87:af:f0:32:cf:1d:2c:bf:17:b3:9a:02:
                    d0:47:77:10:75:a3:c5:77:4d:bc:c7:7c:f2:92:2d:
                    3b:7c:dc:73:1f:25:dd:50:67:29:28:ae:d5:3a:4e:
                    ae:9b:47:a1:86:17:df:0c:e5:cc:1c:43:db:d5:ed:
                    ce:d5:41:58:28:b6:fe:37:63:a1:8f:15:11:50:83:
                    55:71:b3:fd:8f:54:78:cf:ed:14:fd:0d:bf:2d:03:
                    02:6a:cc:3f:e0:a3:4c:dc:79:51:c7:81:08:d1:9a:
                    2c:dc:62:9d:27:79:37:50:7d:38:bb:81:1b:2e:38:
                    18:42:2d:81:3f:8d:33:ee:f8:f6:0a:6c:7f:e4:9b:
                    e3:cf:5b:a5:f9:bb:8a:66:07:78:14:bd:93:ed:46:
                    7c:9f:0d:ee:6b:4c:7d:6c:d8:51:8c:8b:da:d9:15:
                    27:76:01:42:48:33:94:db:7f:86:af:72:c5:5b:76:
                    7d:e3
                Exponent: 65537 (0x10001)
        X509v3 extensions:
            X509v3 Basic Constraints: 
                CA:FALSE
            X509v3 Subject Key Identifier: 
                D8:54:4F:C1:62:FF:49:E1:00:16:E7:C3:1C:A8:A3:46:8B:4F:EF:E8
            X509v3 Authority Key Identifier: 
                keyid:0E:33:82:DE:B3:32:8A:A7:DB:B2:C7:9D:28:4D:F3:7B:AB:A0:31:8C
                DirName:/CN=ca.vpn.iwe.cloud
                serial:89:A4:6D:17:37:78:20:66

            X509v3 Extended Key Usage: 
                TLS Web Client Authentication
            X509v3 Key Usage: 
                Digital Signature
    Signature Algorithm: sha256WithRSAEncryption
         83:b7:6e:5e:ae:0e:e0:a7:ec:93:31:e4:ad:e8:3b:b2:d1:4b:
         a3:f7:83:d9:f4:43:a3:4f:3e:6c:7e:92:15:1e:52:7b:46:9a:
         1d:28:79:b9:b7:d7:7e:53:50:68:48:0a:73:9e:a5:c7:b6:60:
         cb:1f:88:fc:1c:30:e5:d4:a2:0c:d4:7c:4b:e3:3e:bc:2c:f9:
         12:e2:cb:c7:76:53:40:ca:1a:15:56:0a:ff:14:55:b6:17:8b:
         85:39:e2:92:19:3a:fc:10:4e:15:3a:5e:d7:1a:e2:fc:c1:40:
         68:eb:53:aa:58:4f:0b:78:56:d3:b0:f4:6c:e5:0e:00:ad:41:
         b8:d8:20:9b:c0:46:61:3e:ca:2e:8d:68:14:2c:16:ce:f1:3d:
         42:c2:da:4e:c4:2f:5e:64:ea:ad:a4:09:29:3c:14:fc:22:0f:
         48:41:b6:85:c9:7b:72:76:b2:9b:12:3d:d8:c0:de:32:fc:94:
         15:a7:c4:4e:ce:5b:07:93:2a:34:89:29:ce:14:59:f6:cb:13:
         9f:57:56:17:2b:cb:bc:bc:ed:4f:ed:7c:a6:1a:f0:4e:26:bf:
         c7:d1:42:68:ed:3b:0a:53:03:27:0f:a0:90:fe:71:c5:99:92:
         9e:69:61:05:a9:78:7d:15:a3:3d:30:c3:cc:e9:df:45:f2:87:
         c5:0d:0e:e3
-----BEGIN CERTIFICATE-----
MIIDbzCCAlegAwIBAgIRAKxPR1mTzjDM7Ex3vyqLPukwDQYJKoZIhvcNAQELBQAw
GzEZMBcGA1UEAwwQY2EudnBuLml3ZS5jbG91ZDAeFw0xODAzMjkxNzUxMTdaFw0y
ODAzMjYxNzUxMTdaMCwxKjAoBgNVBAMMIWU1MmEwN2RkYzcyZTRiMzViZWFhMjcx
ZDAzZDgyZjBlaDCCASIwDQYJKoZIhvcNAQEBBQADggEPADCCAQoCggEBAKgqmcyn
uFrsix3yNWSchpGyalo8+0HkxU57ZTQw8bwjZIgaobmf9fKV80uZxaGcBZu4qUm0
o3DgY781FJ8XNEtwodH1IczdbmmyLYXSh6/wMs8dLL8Xs5oC0Ed3EHWjxXdNvMd8
8pItO3zccx8l3VBnKSiu1TpOrptHoYYX3wzlzBxD29XtztVBWCi2/jdjoY8VEVCD
VXGz/Y9UeM/tFP0Nvy0DAmrMP+CjTNx5UceBCNGaLNxinSd5N1B9OLuBGy44GEIt
gT+NM+749gpsf+Sb489bpfm7imYHeBS9k+1GfJ8N7mtMfWzYUYyL2tkVJ3YBQkgz
lNt/hq9yxVt2feMCAwEAAaOBnDCBmTAJBgNVHRMEAjAAMB0GA1UdDgQWBBTYVE/B
Yv9J4QAW58McqKNGi0/v6DBLBgNVHSMERDBCgBQOM4LeszKKp9uyx50oTfN7q6Ax
jKEfpB0wGzEZMBcGA1UEAwwQY2EudnBuLml3ZS5jbG91ZIIJAImkbRc3eCBmMBMG
A1UdJQQMMAoGCCsGAQUFBwMCMAsGA1UdDwQEAwIHgDANBgkqhkiG9w0BAQsFAAOC
AQEAg7duXq4O4KfskzHkreg7stFLo/eD2fRDo08+bH6SFR5Se0aaHSh5ubfXflNQ
aEgKc56lx7Zgyx+I/Bww5dSiDNR8S+M+vCz5EuLLx3ZTQMoaFVYK/xRVtheLhTni
khk6/BBOFTpe1xri/MFAaOtTqlhPC3hW07D0bOUOAK1BuNggm8BGYT7KLo1oFCwW
zvE9QsLaTsQvXmTqraQJKTwU/CIPSEG2hcl7cnaymxI92MDeMvyUFafETs5bB5Mq
NIkpzhRZ9ssTn1dWFyvLvLztT+18phrwTia/x9FCaO07ClMDJw+gkP5xxZmSnmlh
Bal4fRWjPTDDzOnfRfKHxQ0O4w==
-----END CERTIFICATE-----
