Certificate:
    Data:
        Version: 3 (0x2)
        Serial Number:
            ac:4f:47:59:93:ce:30:cc:ec:4c:77:bf:2a:8b:3e:ec
    Signature Algorithm: sha256WithRSAEncryption
        Issuer: CN=ca.vpn.iwe.cloud
        Validity
            Not Before: Mar 29 17:53:55 2018 GMT
            Not After : Mar 26 17:53:55 2028 GMT
        Subject: CN=e52a07ddc72e4b35beaa271d03d82f0ek
        Subject Public Key Info:
            Public Key Algorithm: rsaEncryption
                Public-Key: (2048 bit)
                Modulus:
                    00:c8:7b:7a:2b:7d:f6:bc:96:d8:15:de:88:94:0a:
                    26:4e:f9:68:c1:e0:ca:fb:63:cb:cf:6c:14:32:3f:
                    23:62:45:13:d9:c7:0a:28:80:31:e5:1d:5b:79:26:
                    08:db:40:38:bf:81:c7:62:a5:ae:9e:e8:57:0c:69:
                    1f:66:0b:88:43:1f:9e:de:4d:79:89:cd:56:2a:2e:
                    16:07:1c:e7:72:c9:43:9f:a1:e0:03:7d:0d:5e:bf:
                    d3:00:9a:1c:50:85:15:f7:76:ce:65:ce:98:ec:15:
                    1f:6f:61:58:6e:37:7e:0a:b4:4e:5a:fe:dc:cd:bd:
                    61:59:01:18:62:3d:e7:a5:fc:bb:15:ef:b8:9e:49:
                    08:e6:77:85:55:db:63:37:5c:d8:73:ba:88:cf:96:
                    e7:01:9b:6f:07:7e:26:da:bd:f0:6c:9b:98:39:f9:
                    a6:49:dd:d3:6a:69:a1:7b:32:92:36:2a:08:84:8c:
                    d6:4c:d8:38:65:d7:32:ef:a6:7a:76:d1:58:96:ee:
                    79:14:c8:80:76:61:54:6a:b5:da:74:9b:b0:46:dc:
                    68:3a:7f:9a:61:73:ea:6f:ff:29:a0:d0:7c:a5:48:
                    c3:61:04:bd:81:27:7a:96:d3:d2:41:69:73:4b:c4:
                    bd:d6:07:af:86:42:f3:70:7d:1b:28:3e:de:44:9e:
                    d7:3b
                Exponent: 65537 (0x10001)
        X509v3 extensions:
            X509v3 Basic Constraints: 
                CA:FALSE
            X509v3 Subject Key Identifier: 
                23:A2:50:11:F7:5A:30:68:83:27:CB:21:38:D8:9E:AE:35:40:8D:4B
            X509v3 Authority Key Identifier: 
                keyid:0E:33:82:DE:B3:32:8A:A7:DB:B2:C7:9D:28:4D:F3:7B:AB:A0:31:8C
                DirName:/CN=ca.vpn.iwe.cloud
                serial:89:A4:6D:17:37:78:20:66

            X509v3 Extended Key Usage: 
                TLS Web Client Authentication
            X509v3 Key Usage: 
                Digital Signature
    Signature Algorithm: sha256WithRSAEncryption
         4a:51:c4:28:1f:a2:54:43:56:e3:84:73:09:7f:a1:d2:99:5e:
         5f:54:2e:fe:13:96:99:4a:92:07:f1:4e:b0:1f:2e:97:9c:ba:
         d9:46:e9:5e:3d:3c:6b:c7:6f:f4:b8:9f:f9:1c:9a:c0:35:21:
         f3:2b:d0:6e:92:b4:6c:b7:b7:0a:79:c7:d2:e0:ee:5c:56:d7:
         6e:2b:04:a6:28:ee:7c:e8:dc:25:1d:96:df:76:54:77:32:c0:
         e2:39:6a:60:cc:77:00:de:a9:0a:62:b5:bd:07:cc:07:15:95:
         99:18:f3:0b:0e:80:80:e6:ee:6d:5a:11:fe:ff:cc:15:14:bc:
         37:74:f7:3f:f5:15:66:8d:48:45:da:ca:5b:b0:73:50:3e:ec:
         d4:89:5a:cc:e8:91:e9:4a:f2:94:ec:7d:48:ca:4a:65:6f:fb:
         e6:66:2c:c1:c7:88:92:71:b9:b4:be:1f:ec:b3:0c:12:59:79:
         11:04:56:61:98:1b:db:73:f3:45:e8:a8:4e:34:30:88:25:5e:
         28:6f:9f:5b:6d:98:80:42:0b:27:c1:6a:20:44:66:5f:6e:c1:
         1c:9f:9a:7a:20:67:56:79:93:da:70:ca:0f:6c:dd:64:b9:b9:
         e9:19:15:17:2c:48:c5:e4:58:d3:28:5e:a2:a0:95:5b:46:16:
         4c:ec:66:ce
-----BEGIN CERTIFICATE-----
MIIDbzCCAlegAwIBAgIRAKxPR1mTzjDM7Ex3vyqLPuwwDQYJKoZIhvcNAQELBQAw
GzEZMBcGA1UEAwwQY2EudnBuLml3ZS5jbG91ZDAeFw0xODAzMjkxNzUzNTVaFw0y
ODAzMjYxNzUzNTVaMCwxKjAoBgNVBAMMIWU1MmEwN2RkYzcyZTRiMzViZWFhMjcx
ZDAzZDgyZjBlazCCASIwDQYJKoZIhvcNAQEBBQADggEPADCCAQoCggEBAMh7eit9
9ryW2BXeiJQKJk75aMHgyvtjy89sFDI/I2JFE9nHCiiAMeUdW3kmCNtAOL+Bx2Kl
rp7oVwxpH2YLiEMfnt5NeYnNViouFgcc53LJQ5+h4AN9DV6/0wCaHFCFFfd2zmXO
mOwVH29hWG43fgq0Tlr+3M29YVkBGGI956X8uxXvuJ5JCOZ3hVXbYzdc2HO6iM+W
5wGbbwd+Jtq98GybmDn5pknd02ppoXsykjYqCISM1kzYOGXXMu+menbRWJbueRTI
gHZhVGq12nSbsEbcaDp/mmFz6m//KaDQfKVIw2EEvYEnepbT0kFpc0vEvdYHr4ZC
83B9Gyg+3kSe1zsCAwEAAaOBnDCBmTAJBgNVHRMEAjAAMB0GA1UdDgQWBBQjolAR
91owaIMnyyE42J6uNUCNSzBLBgNVHSMERDBCgBQOM4LeszKKp9uyx50oTfN7q6Ax
jKEfpB0wGzEZMBcGA1UEAwwQY2EudnBuLml3ZS5jbG91ZIIJAImkbRc3eCBmMBMG
A1UdJQQMMAoGCCsGAQUFBwMCMAsGA1UdDwQEAwIHgDANBgkqhkiG9w0BAQsFAAOC
AQEASlHEKB+iVENW44RzCX+h0pleX1Qu/hOWmUqSB/FOsB8ul5y62UbpXj08a8dv
9Lif+RyawDUh8yvQbpK0bLe3CnnH0uDuXFbXbisEpijufOjcJR2W33ZUdzLA4jlq
YMx3AN6pCmK1vQfMBxWVmRjzCw6AgObubVoR/v/MFRS8N3T3P/UVZo1IRdrKW7Bz
UD7s1IlazOiR6UrylOx9SMpKZW/75mYswceIknG5tL4f7LMMEll5EQRWYZgb23Pz
ReioTjQwiCVeKG+fW22YgEILJ8FqIERmX27BHJ+aeiBnVnmT2nDKD2zdZLm56RkV
FyxIxeRY0yheoqCVW0YWTOxmzg==
-----END CERTIFICATE-----
