Certificate:
    Data:
        Version: 3 (0x2)
        Serial Number:
            ac:4f:47:59:93:ce:30:cc:ec:4c:77:bf:2a:8b:3e:c7
    Signature Algorithm: sha256WithRSAEncryption
        Issuer: CN=ca.vpn.iwe.cloud
        Validity
            Not Before: Feb 26 13:48:41 2018 GMT
            Not After : Feb 24 13:48:41 2028 GMT
        Subject: CN=000-000-001.pool.iwe.cloud
        Subject Public Key Info:
            Public Key Algorithm: rsaEncryption
                Public-Key: (2048 bit)
                Modulus:
                    00:be:26:c7:ef:a5:9c:26:a4:5c:69:69:51:9c:bb:
                    b2:e3:0c:53:00:f3:f9:93:5d:0f:6a:e2:dc:ca:cf:
                    77:d6:10:f6:8d:9b:98:00:44:a6:80:62:7a:03:3e:
                    5b:ac:bb:76:44:92:0f:d7:7e:5d:f6:3f:40:19:b4:
                    37:c6:5e:25:da:7e:2f:9c:28:29:d7:19:06:68:f2:
                    2d:77:42:96:69:69:8b:6a:08:60:fb:e0:38:ce:fa:
                    37:ec:9d:34:f5:a6:19:ce:1a:68:ff:1e:d8:11:1d:
                    c7:5c:17:88:fc:4c:62:08:b1:a9:4f:2f:7c:62:8f:
                    2b:60:34:ac:1c:37:5b:6d:c0:ae:48:42:6e:9f:53:
                    52:b4:15:cf:54:3e:db:59:d7:3f:dd:ae:d3:9e:83:
                    56:c6:11:cc:61:be:63:4a:f5:a1:de:ce:1b:f0:28:
                    65:b6:86:02:19:79:6f:db:4b:f9:f5:98:70:53:ec:
                    80:63:43:7f:59:dd:4b:48:88:29:29:e4:1b:7f:4b:
                    ae:7b:be:65:eb:71:7a:b1:6d:aa:65:6c:4b:60:d1:
                    7e:1b:8b:76:c0:2f:42:56:87:aa:a7:e8:75:c1:10:
                    5f:cf:d9:54:6c:d9:e4:30:19:73:4f:83:60:ed:e5:
                    4c:9b:84:ee:6d:99:d2:86:06:02:64:4a:a3:78:b0:
                    af:bf
                Exponent: 65537 (0x10001)
        X509v3 extensions:
            X509v3 Basic Constraints: 
                CA:FALSE
            X509v3 Subject Key Identifier: 
                F6:96:D0:BA:23:32:11:AC:44:9A:40:EC:88:4C:88:DC:57:74:7F:29
            X509v3 Authority Key Identifier: 
                keyid:0E:33:82:DE:B3:32:8A:A7:DB:B2:C7:9D:28:4D:F3:7B:AB:A0:31:8C
                DirName:/CN=ca.vpn.iwe.cloud
                serial:89:A4:6D:17:37:78:20:66

            X509v3 Extended Key Usage: 
                TLS Web Client Authentication
            X509v3 Key Usage: 
                Digital Signature
    Signature Algorithm: sha256WithRSAEncryption
         2d:05:9f:17:6d:e3:60:d7:07:01:63:0e:73:84:e2:fb:b8:2f:
         a3:dc:29:b9:92:d8:7c:96:dc:c5:d9:50:1e:61:24:b8:78:e9:
         53:bf:82:bb:c5:ad:f0:5f:88:08:dc:98:43:41:bd:5d:0d:28:
         43:90:12:23:dc:4c:e4:6d:81:5f:71:2a:3f:50:26:80:5c:46:
         f7:95:45:93:40:c5:b6:91:3f:a4:5a:7c:f7:46:b6:8a:29:15:
         6c:be:9f:20:ab:d2:68:9f:1b:8a:9f:3d:63:f7:05:3c:75:21:
         09:a0:5c:f4:64:88:93:1c:c5:09:54:43:55:6e:25:1a:08:b0:
         31:9c:2a:1f:63:16:ff:c7:89:27:a9:e4:91:d7:fa:b4:a4:91:
         30:54:26:74:06:14:4c:24:7d:ab:70:b7:46:49:b5:04:ba:21:
         b8:61:a2:e3:38:4f:aa:cb:75:9d:42:4d:c4:05:6b:7f:47:82:
         55:f1:5b:3b:e2:04:4c:e1:5b:20:f7:2b:15:29:a0:57:ed:58:
         f6:80:19:b9:2c:a3:d3:38:c6:ad:33:51:f9:83:0d:10:c1:17:
         ac:ce:14:44:67:05:cb:4d:3f:51:ec:78:ab:46:3b:de:3c:29:
         92:58:56:9e:84:18:9b:2c:21:5d:60:9d:3f:a5:e8:a4:ed:f9:
         eb:85:f1:ba
-----BEGIN CERTIFICATE-----
MIIDaDCCAlCgAwIBAgIRAKxPR1mTzjDM7Ex3vyqLPscwDQYJKoZIhvcNAQELBQAw
GzEZMBcGA1UEAwwQY2EudnBuLml3ZS5jbG91ZDAeFw0xODAyMjYxMzQ4NDFaFw0y
ODAyMjQxMzQ4NDFaMCUxIzAhBgNVBAMMGjAwMC0wMDAtMDAxLnBvb2wuaXdlLmNs
b3VkMIIBIjANBgkqhkiG9w0BAQEFAAOCAQ8AMIIBCgKCAQEAvibH76WcJqRcaWlR
nLuy4wxTAPP5k10PauLcys931hD2jZuYAESmgGJ6Az5brLt2RJIP135d9j9AGbQ3
xl4l2n4vnCgp1xkGaPItd0KWaWmLaghg++A4zvo37J009aYZzhpo/x7YER3HXBeI
/ExiCLGpTy98Yo8rYDSsHDdbbcCuSEJun1NStBXPVD7bWdc/3a7TnoNWxhHMYb5j
SvWh3s4b8ChltoYCGXlv20v59ZhwU+yAY0N/Wd1LSIgpKeQbf0uue75l63F6sW2q
ZWxLYNF+G4t2wC9CVoeqp+h1wRBfz9lUbNnkMBlzT4Ng7eVMm4TubZnShgYCZEqj
eLCvvwIDAQABo4GcMIGZMAkGA1UdEwQCMAAwHQYDVR0OBBYEFPaW0LojMhGsRJpA
7IhMiNxXdH8pMEsGA1UdIwREMEKAFA4zgt6zMoqn27LHnShN83uroDGMoR+kHTAb
MRkwFwYDVQQDDBBjYS52cG4uaXdlLmNsb3VkggkAiaRtFzd4IGYwEwYDVR0lBAww
CgYIKwYBBQUHAwIwCwYDVR0PBAQDAgeAMA0GCSqGSIb3DQEBCwUAA4IBAQAtBZ8X
beNg1wcBYw5zhOL7uC+j3Cm5kth8ltzF2VAeYSS4eOlTv4K7xa3wX4gI3JhDQb1d
DShDkBIj3EzkbYFfcSo/UCaAXEb3lUWTQMW2kT+kWnz3RraKKRVsvp8gq9JonxuK
nz1j9wU8dSEJoFz0ZIiTHMUJVENVbiUaCLAxnCofYxb/x4knqeSR1/q0pJEwVCZ0
BhRMJH2rcLdGSbUEuiG4YaLjOE+qy3WdQk3EBWt/R4JV8Vs74gRM4Vsg9ysVKaBX
7Vj2gBm5LKPTOMatM1H5gw0QwReszhREZwXLTT9R7HirRjvePCmSWFaehBibLCFd
YJ0/peik7fnrhfG6
-----END CERTIFICATE-----
