Certificate:
    Data:
        Version: 3 (0x2)
        Serial Number:
            ac:4f:47:59:93:ce:30:cc:ec:4c:77:bf:2a:8b:3e:d0
    Signature Algorithm: sha256WithRSAEncryption
        Issuer: CN=ca.vpn.iwe.cloud
        Validity
            Not Before: Mar  7 14:12:44 2018 GMT
            Not After : Mar  4 14:12:44 2028 GMT
        Subject: CN=2e63ec50-907a-419c-b1b7-c4ed4f285c83
        Subject Public Key Info:
            Public Key Algorithm: rsaEncryption
                Public-Key: (2048 bit)
                Modulus:
                    00:b9:38:46:3b:bc:41:82:1e:49:80:03:d2:00:47:
                    5b:ba:e4:0a:6a:dd:ac:20:c4:8c:e9:f8:66:3f:79:
                    25:2d:6a:ee:ee:59:76:21:79:f6:94:72:62:cd:02:
                    90:ca:79:fa:54:85:40:04:84:95:43:37:dd:fe:55:
                    6f:b7:1e:d8:30:a3:a2:a4:7e:5b:58:d7:21:90:f1:
                    c6:7d:8e:79:59:6f:3f:9a:b6:4b:3e:03:85:fb:52:
                    4d:cb:4b:bc:54:70:9f:6f:7e:b2:04:93:5d:36:3f:
                    d4:90:f7:28:5a:91:4e:80:e4:4d:65:83:21:af:0f:
                    e2:28:e2:ee:a3:3f:22:a6:0d:4a:27:c2:32:f6:42:
                    c2:3e:1d:98:f2:a2:d1:6c:37:e3:a7:26:f2:40:ff:
                    75:86:b6:f4:15:3d:43:b9:cd:d7:32:4b:48:f8:60:
                    ce:e3:3f:a5:6e:fb:ba:1c:10:9e:8d:db:90:06:01:
                    a7:4c:33:c6:47:b6:14:f8:a9:46:53:e1:53:ad:ff:
                    7c:fc:08:30:10:b6:fa:0f:36:6b:e4:19:21:9c:90:
                    f7:61:f4:8b:5a:a2:a0:55:3f:8a:9a:47:ac:9e:43:
                    3e:f3:34:6b:ea:37:07:7f:64:2d:cf:2d:97:39:b3:
                    94:5f:db:85:02:59:e9:bd:d3:bc:a4:be:26:d4:a5:
                    3a:05
                Exponent: 65537 (0x10001)
        X509v3 extensions:
            X509v3 Basic Constraints: 
                CA:FALSE
            X509v3 Subject Key Identifier: 
                B4:AD:D3:9D:89:55:D5:53:52:7B:93:B8:36:B9:04:6F:97:B2:AE:78
            X509v3 Authority Key Identifier: 
                keyid:0E:33:82:DE:B3:32:8A:A7:DB:B2:C7:9D:28:4D:F3:7B:AB:A0:31:8C
                DirName:/CN=ca.vpn.iwe.cloud
                serial:89:A4:6D:17:37:78:20:66

            X509v3 Extended Key Usage: 
                TLS Web Client Authentication
            X509v3 Key Usage: 
                Digital Signature
    Signature Algorithm: sha256WithRSAEncryption
         92:6b:d6:55:99:41:e5:0e:2b:54:09:ae:87:63:fa:5f:b4:da:
         f4:2f:98:28:5a:7d:5b:11:ac:9b:0f:4a:26:3f:c4:89:8e:9f:
         b9:d4:9b:dc:38:e0:61:8e:b6:2f:3d:45:1e:70:19:c1:ea:b1:
         8a:5b:4e:00:1d:b8:72:03:45:0e:0d:7c:90:64:58:37:30:f7:
         ee:66:33:f9:2a:b5:9b:a7:60:fb:1a:a5:ff:99:3f:f3:07:88:
         86:3a:c6:a1:67:61:4d:fc:32:46:16:93:ae:1f:27:7e:a1:a9:
         d7:2b:f5:97:4d:17:8c:bb:af:b4:9c:aa:95:fe:05:7a:d0:76:
         cf:79:6d:52:a3:83:83:c6:00:db:97:6f:6f:1a:78:47:42:f5:
         e0:5f:9b:bb:01:e2:eb:66:b8:44:cd:de:d0:29:1f:df:8e:84:
         ba:99:42:fe:a3:42:04:14:0f:2b:43:e9:51:f7:57:7e:01:68:
         21:92:c8:0f:c1:08:34:50:b9:24:18:b3:02:b2:c9:d5:38:3c:
         75:3c:e8:43:d9:35:04:81:a8:80:7c:bc:cd:6c:f2:3c:69:5d:
         17:f6:7c:0c:a7:c1:e8:99:b5:da:3d:4d:e5:bd:bd:58:ee:36:
         3f:15:2d:af:55:97:69:90:2e:74:b8:35:3f:89:61:c1:7a:4d:
         69:d4:5b:09
-----BEGIN CERTIFICATE-----
MIIDcjCCAlqgAwIBAgIRAKxPR1mTzjDM7Ex3vyqLPtAwDQYJKoZIhvcNAQELBQAw
GzEZMBcGA1UEAwwQY2EudnBuLml3ZS5jbG91ZDAeFw0xODAzMDcxNDEyNDRaFw0y
ODAzMDQxNDEyNDRaMC8xLTArBgNVBAMMJDJlNjNlYzUwLTkwN2EtNDE5Yy1iMWI3
LWM0ZWQ0ZjI4NWM4MzCCASIwDQYJKoZIhvcNAQEBBQADggEPADCCAQoCggEBALk4
Rju8QYIeSYAD0gBHW7rkCmrdrCDEjOn4Zj95JS1q7u5ZdiF59pRyYs0CkMp5+lSF
QASElUM33f5Vb7ce2DCjoqR+W1jXIZDxxn2OeVlvP5q2Sz4DhftSTctLvFRwn29+
sgSTXTY/1JD3KFqRToDkTWWDIa8P4iji7qM/IqYNSifCMvZCwj4dmPKi0Ww346cm
8kD/dYa29BU9Q7nN1zJLSPhgzuM/pW77uhwQno3bkAYBp0wzxke2FPipRlPhU63/
fPwIMBC2+g82a+QZIZyQ92H0i1qioFU/ippHrJ5DPvM0a+o3B39kLc8tlzmzlF/b
hQJZ6b3TvKS+JtSlOgUCAwEAAaOBnDCBmTAJBgNVHRMEAjAAMB0GA1UdDgQWBBS0
rdOdiVXVU1J7k7g2uQRvl7KueDBLBgNVHSMERDBCgBQOM4LeszKKp9uyx50oTfN7
q6AxjKEfpB0wGzEZMBcGA1UEAwwQY2EudnBuLml3ZS5jbG91ZIIJAImkbRc3eCBm
MBMGA1UdJQQMMAoGCCsGAQUFBwMCMAsGA1UdDwQEAwIHgDANBgkqhkiG9w0BAQsF
AAOCAQEAkmvWVZlB5Q4rVAmuh2P6X7Ta9C+YKFp9WxGsmw9KJj/EiY6fudSb3Djg
YY62Lz1FHnAZweqxiltOAB24cgNFDg18kGRYNzD37mYz+Sq1m6dg+xql/5k/8weI
hjrGoWdhTfwyRhaTrh8nfqGp1yv1l00XjLuvtJyqlf4FetB2z3ltUqODg8YA25dv
bxp4R0L14F+buwHi62a4RM3e0Ckf346EuplC/qNCBBQPK0PpUfdXfgFoIZLID8EI
NFC5JBizArLJ1Tg8dTzoQ9k1BIGogHy8zWzyPGldF/Z8DKfB6Jm12j1N5b29WO42
PxUtr1WXaZAudLg1P4lhwXpNadRbCQ==
-----END CERTIFICATE-----
