Certificate:
    Data:
        Version: 3 (0x2)
        Serial Number:
            ac:4f:47:59:93:ce:30:cc:ec:4c:77:bf:2a:8b:3e:e1
    Signature Algorithm: sha256WithRSAEncryption
        Issuer: CN=ca.vpn.iwe.cloud
        Validity
            Not Before: Mar 29 17:32:18 2018 GMT
            Not After : Mar 26 17:32:18 2028 GMT
        Subject: CN=e52a07ddc72e4b35beaa271d03d82f0e
        Subject Public Key Info:
            Public Key Algorithm: rsaEncryption
                Public-Key: (2048 bit)
                Modulus:
                    00:c4:d6:9b:3a:43:3f:ba:2e:9a:f9:fb:de:10:d3:
                    9d:5b:08:d6:08:5e:c7:5f:19:19:01:ce:60:01:4d:
                    76:75:7e:ec:4d:cb:cd:56:9f:e2:3f:82:91:e5:71:
                    55:09:d0:29:1f:49:1e:f4:01:cb:9f:ae:39:7b:bc:
                    38:89:14:88:f4:c2:9f:86:60:44:9e:83:0c:93:f5:
                    64:2f:ac:75:93:b5:8e:6a:b7:a2:8e:da:b9:00:1d:
                    87:4f:3f:52:e8:47:15:76:c7:70:c9:4e:58:6a:d9:
                    39:0a:4a:7a:e5:36:ab:b4:40:8a:e7:d4:5d:53:70:
                    28:6d:45:b2:3d:2a:88:59:c4:77:63:62:71:8d:5c:
                    82:9f:ab:60:00:0b:4a:55:61:91:a6:e7:7a:3c:4b:
                    b7:14:f5:36:10:dc:eb:ff:25:a5:c5:b4:ab:2a:b3:
                    90:6a:99:84:4d:a9:75:0f:f6:20:45:a2:53:e0:de:
                    75:d2:52:04:d3:30:84:f4:c6:b9:27:37:f0:82:70:
                    50:a5:b5:fe:d4:f0:7b:c5:c7:75:18:33:83:88:89:
                    db:e3:5b:8e:0b:4c:4a:8d:00:0e:16:28:72:e8:5a:
                    c9:97:16:ab:08:8f:06:86:72:15:cd:d7:4f:7d:7a:
                    fe:ba:95:50:6c:38:04:e2:74:f1:0a:c0:f8:a2:45:
                    7a:f1
                Exponent: 65537 (0x10001)
        X509v3 extensions:
            X509v3 Basic Constraints: 
                CA:FALSE
            X509v3 Subject Key Identifier: 
                F8:89:3E:8C:7F:BD:18:A0:B1:E6:FE:BD:C4:4B:7C:F8:98:D5:C6:79
            X509v3 Authority Key Identifier: 
                keyid:0E:33:82:DE:B3:32:8A:A7:DB:B2:C7:9D:28:4D:F3:7B:AB:A0:31:8C
                DirName:/CN=ca.vpn.iwe.cloud
                serial:89:A4:6D:17:37:78:20:66

            X509v3 Extended Key Usage: 
                TLS Web Client Authentication
            X509v3 Key Usage: 
                Digital Signature
    Signature Algorithm: sha256WithRSAEncryption
         8c:c7:59:84:8d:13:e1:08:74:0d:f7:ac:12:5c:42:cb:71:8e:
         77:90:40:89:01:70:a9:78:94:7f:fa:89:47:f8:01:fd:c4:27:
         bb:f6:fe:51:bd:48:82:0d:37:5f:62:ae:f3:20:2d:68:90:8f:
         a2:dd:53:d3:bb:32:d6:e6:29:7e:4e:33:28:02:71:52:19:b1:
         56:08:d2:da:a7:1d:8b:04:04:63:15:5b:91:2a:96:2d:e4:8e:
         14:e1:37:a5:7b:6d:b4:14:46:02:0f:14:49:b8:49:94:00:fc:
         9c:1c:b2:b4:9e:42:ab:f0:bd:be:ae:9e:e3:e2:ab:4b:4b:53:
         28:f1:9d:24:a5:05:fe:93:8f:34:0d:ea:fd:d8:5b:c5:c2:61:
         05:63:5d:e9:04:59:f1:6d:44:00:1c:b3:e6:6c:6b:0a:80:2e:
         34:c5:e0:19:31:5d:ad:64:a0:03:71:63:94:5f:62:4d:e4:69:
         6f:3f:29:e9:64:30:13:24:b3:13:95:fe:4d:5f:5e:6e:8e:ee:
         81:51:e7:08:71:f6:cd:dd:7f:73:a2:03:9e:56:b6:ae:68:bf:
         73:11:d7:a5:c4:c8:47:5d:f2:1e:76:ef:a9:01:69:11:4f:0c:
         48:aa:10:02:f7:1e:46:d5:23:24:24:80:c8:17:b0:b4:d1:c5:
         e9:7a:65:fa
-----BEGIN CERTIFICATE-----
MIIDbjCCAlagAwIBAgIRAKxPR1mTzjDM7Ex3vyqLPuEwDQYJKoZIhvcNAQELBQAw
GzEZMBcGA1UEAwwQY2EudnBuLml3ZS5jbG91ZDAeFw0xODAzMjkxNzMyMThaFw0y
ODAzMjYxNzMyMThaMCsxKTAnBgNVBAMMIGU1MmEwN2RkYzcyZTRiMzViZWFhMjcx
ZDAzZDgyZjBlMIIBIjANBgkqhkiG9w0BAQEFAAOCAQ8AMIIBCgKCAQEAxNabOkM/
ui6a+fveENOdWwjWCF7HXxkZAc5gAU12dX7sTcvNVp/iP4KR5XFVCdApH0ke9AHL
n645e7w4iRSI9MKfhmBEnoMMk/VkL6x1k7WOareijtq5AB2HTz9S6EcVdsdwyU5Y
atk5Ckp65TartECK59RdU3AobUWyPSqIWcR3Y2JxjVyCn6tgAAtKVWGRpud6PEu3
FPU2ENzr/yWlxbSrKrOQapmETal1D/YgRaJT4N510lIE0zCE9Ma5JzfwgnBQpbX+
1PB7xcd1GDODiInb41uOC0xKjQAOFihy6FrJlxarCI8GhnIVzddPfXr+upVQbDgE
4nTxCsD4okV68QIDAQABo4GcMIGZMAkGA1UdEwQCMAAwHQYDVR0OBBYEFPiJPox/
vRigseb+vcRLfPiY1cZ5MEsGA1UdIwREMEKAFA4zgt6zMoqn27LHnShN83uroDGM
oR+kHTAbMRkwFwYDVQQDDBBjYS52cG4uaXdlLmNsb3VkggkAiaRtFzd4IGYwEwYD
VR0lBAwwCgYIKwYBBQUHAwIwCwYDVR0PBAQDAgeAMA0GCSqGSIb3DQEBCwUAA4IB
AQCMx1mEjRPhCHQN96wSXELLcY53kECJAXCpeJR/+olH+AH9xCe79v5RvUiCDTdf
Yq7zIC1okI+i3VPTuzLW5il+TjMoAnFSGbFWCNLapx2LBARjFVuRKpYt5I4U4Tel
e220FEYCDxRJuEmUAPycHLK0nkKr8L2+rp7j4qtLS1Mo8Z0kpQX+k480Der92FvF
wmEFY13pBFnxbUQAHLPmbGsKgC40xeAZMV2tZKADcWOUX2JN5GlvPynpZDATJLMT
lf5NX15uju6BUecIcfbN3X9zogOeVrauaL9zEdelxMhHXfIedu+pAWkRTwxIqhAC
9x5G1SMkJIDIF7C00cXpemX6
-----END CERTIFICATE-----
