Certificate:
    Data:
        Version: 3 (0x2)
        Serial Number:
            ac:4f:47:59:93:ce:30:cc:ec:4c:77:bf:2a:8b:3e:e2
    Signature Algorithm: sha256WithRSAEncryption
        Issuer: CN=ca.vpn.iwe.cloud
        Validity
            Not Before: Mar 29 17:32:42 2018 GMT
            Not After : Mar 26 17:32:42 2028 GMT
        Subject: CN=e52a07ddc72e4b35beaa271d03d82f0ea
        Subject Public Key Info:
            Public Key Algorithm: rsaEncryption
                Public-Key: (2048 bit)
                Modulus:
                    00:e2:2c:ec:cc:40:f1:a5:7c:b3:27:01:c3:bc:a8:
                    e2:fa:8f:f6:10:30:c1:70:42:27:9a:8d:1f:e0:4b:
                    ed:2d:72:0c:53:2f:5b:ef:6f:cc:0a:61:fd:c9:4e:
                    5b:9d:dd:94:8e:c6:90:82:82:d3:3e:d9:3d:1b:29:
                    5e:d5:59:9d:48:1f:18:e4:f1:35:50:8f:0a:14:d9:
                    ec:3a:d0:a9:34:1c:83:3a:b0:24:c7:c5:20:bc:35:
                    85:a9:1a:4f:10:f4:b8:56:45:50:52:f0:b4:b1:67:
                    ac:b6:74:f6:98:3c:00:82:39:c3:9d:6b:97:14:5f:
                    af:13:7e:f9:8a:fd:5c:de:8b:31:82:74:ee:c7:b0:
                    42:60:07:25:5f:6c:1f:9d:83:cd:4a:18:c3:b0:15:
                    31:19:85:13:45:2c:aa:07:03:68:96:80:ec:70:37:
                    d7:a8:b8:1a:10:cf:cb:e7:1d:81:c3:d3:a7:10:ac:
                    1f:80:b7:c6:4e:dc:13:13:d0:fa:0b:d3:46:90:ca:
                    1d:48:21:dc:8e:9b:9b:07:b5:3d:33:19:37:a0:85:
                    3f:32:2a:b6:e9:17:2b:50:a7:83:6a:71:ef:77:ff:
                    76:53:29:53:a5:ab:2b:b1:e3:a2:89:4a:e5:c2:db:
                    ca:e7:da:90:fe:4a:1b:fa:51:03:c9:d5:b3:e8:42:
                    e6:67
                Exponent: 65537 (0x10001)
        X509v3 extensions:
            X509v3 Basic Constraints: 
                CA:FALSE
            X509v3 Subject Key Identifier: 
                AB:66:A9:7A:EE:67:1E:02:D3:9B:26:5A:40:D3:25:71:1E:2E:80:1C
            X509v3 Authority Key Identifier: 
                keyid:0E:33:82:DE:B3:32:8A:A7:DB:B2:C7:9D:28:4D:F3:7B:AB:A0:31:8C
                DirName:/CN=ca.vpn.iwe.cloud
                serial:89:A4:6D:17:37:78:20:66

            X509v3 Extended Key Usage: 
                TLS Web Client Authentication
            X509v3 Key Usage: 
                Digital Signature
    Signature Algorithm: sha256WithRSAEncryption
         53:56:f5:2f:28:a5:5d:20:b8:fb:29:3b:65:28:3b:ac:80:42:
         a4:84:9e:ec:ee:b3:27:47:b6:b0:bf:3a:1b:5e:ea:56:c0:fe:
         ec:f0:bc:ea:d3:78:44:aa:1d:23:4c:7f:2d:79:04:d2:c8:3e:
         ab:dd:66:41:6f:ba:95:b9:5b:dc:c7:01:02:34:dd:53:a3:37:
         e4:56:cc:17:11:22:e3:8a:b8:8f:b4:b2:db:d0:10:49:54:d5:
         8e:5b:39:fe:10:fe:97:27:98:aa:04:dc:c4:4a:69:42:49:e9:
         19:79:49:ef:02:4a:46:e1:ab:eb:3d:19:42:8f:bf:40:c1:e0:
         99:09:c3:c3:40:3a:d4:93:4b:e5:90:19:a4:ee:fa:06:83:05:
         6c:cb:af:2b:a5:66:10:4f:70:b3:9e:ad:32:62:55:8a:19:4d:
         a4:1b:fe:7d:7e:3b:cd:c7:b6:b8:27:a1:30:1a:2c:98:5c:6e:
         2d:9f:0a:00:d3:35:b6:91:30:29:0a:98:84:7f:2d:0f:07:54:
         0a:81:80:ab:b6:5e:48:d0:a3:aa:03:9e:66:0a:65:9e:f9:dd:
         65:fc:af:a5:21:13:5f:cd:49:d0:3b:fa:2e:e3:fb:71:a1:3f:
         99:b9:a1:08:fe:7f:56:dc:6a:77:b9:05:56:26:b1:f4:62:a4:
         5d:f0:f0:5c
-----BEGIN CERTIFICATE-----
MIIDbzCCAlegAwIBAgIRAKxPR1mTzjDM7Ex3vyqLPuIwDQYJKoZIhvcNAQELBQAw
GzEZMBcGA1UEAwwQY2EudnBuLml3ZS5jbG91ZDAeFw0xODAzMjkxNzMyNDJaFw0y
ODAzMjYxNzMyNDJaMCwxKjAoBgNVBAMMIWU1MmEwN2RkYzcyZTRiMzViZWFhMjcx
ZDAzZDgyZjBlYTCCASIwDQYJKoZIhvcNAQEBBQADggEPADCCAQoCggEBAOIs7MxA
8aV8sycBw7yo4vqP9hAwwXBCJ5qNH+BL7S1yDFMvW+9vzAph/clOW53dlI7GkIKC
0z7ZPRspXtVZnUgfGOTxNVCPChTZ7DrQqTQcgzqwJMfFILw1hakaTxD0uFZFUFLw
tLFnrLZ09pg8AII5w51rlxRfrxN++Yr9XN6LMYJ07sewQmAHJV9sH52DzUoYw7AV
MRmFE0UsqgcDaJaA7HA316i4GhDPy+cdgcPTpxCsH4C3xk7cExPQ+gvTRpDKHUgh
3I6bmwe1PTMZN6CFPzIqtukXK1Cng2px73f/dlMpU6WrK7HjoolK5cLbyufakP5K
G/pRA8nVs+hC5mcCAwEAAaOBnDCBmTAJBgNVHRMEAjAAMB0GA1UdDgQWBBSrZql6
7mceAtObJlpA0yVxHi6AHDBLBgNVHSMERDBCgBQOM4LeszKKp9uyx50oTfN7q6Ax
jKEfpB0wGzEZMBcGA1UEAwwQY2EudnBuLml3ZS5jbG91ZIIJAImkbRc3eCBmMBMG
A1UdJQQMMAoGCCsGAQUFBwMCMAsGA1UdDwQEAwIHgDANBgkqhkiG9w0BAQsFAAOC
AQEAU1b1LyilXSC4+yk7ZSg7rIBCpISe7O6zJ0e2sL86G17qVsD+7PC86tN4RKod
I0x/LXkE0sg+q91mQW+6lblb3McBAjTdU6M35FbMFxEi44q4j7Sy29AQSVTVjls5
/hD+lyeYqgTcxEppQknpGXlJ7wJKRuGr6z0ZQo+/QMHgmQnDw0A61JNL5ZAZpO76
BoMFbMuvK6VmEE9ws56tMmJVihlNpBv+fX47zce2uCehMBosmFxuLZ8KANM1tpEw
KQqYhH8tDwdUCoGAq7ZeSNCjqgOeZgplnvndZfyvpSETX81J0Dv6LuP7caE/mbmh
CP5/Vtxqd7kFViax9GKkXfDwXA==
-----END CERTIFICATE-----
