Certificate:
    Data:
        Version: 3 (0x2)
        Serial Number:
            ea:b4:b9:45:f4:c3:e1:b3:d5:52:b9:c5:af:52:f3:38
    Signature Algorithm: sha256WithRSAEncryption
        Issuer: CN=ca.vpn.iwe.cloud
        Validity
            Not Before: Feb 26 13:47:19 2018 GMT
            Not After : Feb 24 13:47:19 2028 GMT
        Subject: CN=000-000-001
        Subject Public Key Info:
            Public Key Algorithm: rsaEncryption
                Public-Key: (2048 bit)
                Modulus:
                    00:c0:9d:6d:47:9f:27:88:49:0b:da:40:35:2f:b8:
                    97:b5:34:9b:7c:b0:bb:c6:dc:0d:08:5b:43:d5:52:
                    90:f5:3f:88:02:3a:9c:b0:be:0c:0f:3b:d1:d8:c2:
                    07:cf:ca:ad:68:c1:a1:be:23:da:24:1c:5f:db:22:
                    58:bd:25:af:6a:e8:3f:a6:01:dc:21:5e:1b:0b:9e:
                    25:99:02:9d:8d:ee:8e:97:14:cb:00:e3:48:e5:db:
                    40:bc:5c:0b:05:19:5d:7d:5a:17:44:77:8a:ee:16:
                    2a:06:50:5c:b8:8e:14:8a:fd:60:52:cf:df:70:cf:
                    ec:76:05:e6:83:32:e4:6a:64:b7:84:b9:fb:4b:38:
                    d1:f6:11:7c:ec:bc:bd:96:c1:6b:90:31:1b:a7:3d:
                    73:de:13:c9:d2:36:d5:d4:35:4e:fb:88:d6:61:b2:
                    60:79:98:81:ed:1f:d8:d5:ab:71:48:57:2c:d2:7f:
                    48:c7:39:c9:86:76:95:28:a8:93:da:89:a9:ad:bf:
                    d5:59:21:fe:e5:30:d5:3f:66:95:e7:a0:71:e3:d3:
                    93:cb:39:59:a1:a2:aa:2a:3a:4d:b7:ef:ec:dd:7f:
                    15:76:c5:05:0b:4f:22:ae:74:33:bd:fd:99:c1:77:
                    4b:bf:b2:2c:65:d6:c3:31:83:93:ec:1e:29:c7:44:
                    5f:51
                Exponent: 65537 (0x10001)
        X509v3 extensions:
            X509v3 Basic Constraints: 
                CA:FALSE
            X509v3 Subject Key Identifier: 
                BC:95:92:B3:D3:72:37:7F:C5:94:19:67:05:AE:BB:6D:92:AB:4C:1A
            X509v3 Authority Key Identifier: 
                keyid:0E:33:82:DE:B3:32:8A:A7:DB:B2:C7:9D:28:4D:F3:7B:AB:A0:31:8C
                DirName:/CN=ca.vpn.iwe.cloud
                serial:89:A4:6D:17:37:78:20:66

            X509v3 Extended Key Usage: 
                TLS Web Client Authentication
            X509v3 Key Usage: 
                Digital Signature
    Signature Algorithm: sha256WithRSAEncryption
         67:f4:19:ac:d0:2b:ea:0e:49:79:ce:a1:c4:46:fe:12:ed:65:
         89:9d:0f:8f:8d:0c:20:27:46:a8:f7:9f:8c:42:20:2e:7b:7b:
         5e:e0:0f:e9:b3:82:7d:e2:f6:18:27:3a:7e:51:d9:bd:9a:81:
         e1:52:ed:c1:4d:df:b8:76:5d:ac:d3:1c:e2:51:3c:43:75:6b:
         43:9f:be:00:8f:81:f8:b7:bf:80:f6:5a:c6:3e:5a:07:24:7a:
         dc:20:6f:be:58:49:af:0f:61:39:c8:a5:63:98:28:cb:2f:d9:
         d0:f2:ae:86:b3:6f:78:47:04:bb:93:53:43:bc:ba:f7:e1:5e:
         b5:61:4d:2f:21:ec:78:b3:52:21:2c:b7:de:40:93:f4:6e:6c:
         b0:1a:6c:92:1e:f7:4d:7f:4f:79:51:49:eb:ab:72:67:8e:ee:
         5e:98:21:5e:6e:fb:8a:95:66:ca:98:d3:51:9a:85:2a:10:3d:
         97:9c:22:75:ed:45:e8:14:72:18:7e:cd:c3:fd:55:76:30:17:
         99:38:28:07:64:32:32:ab:ee:8a:2e:d4:a6:4d:b0:8a:ca:a5:
         cc:9e:2a:09:82:07:fa:e2:f7:d4:40:1e:a7:66:1a:bc:63:2a:
         9a:9f:a7:85:ee:65:91:15:f2:96:63:c4:ee:56:d3:68:c5:25:
         e0:19:9d:6f
-----BEGIN CERTIFICATE-----
MIIDWTCCAkGgAwIBAgIRAOq0uUX0w+Gz1VK5xa9S8zgwDQYJKoZIhvcNAQELBQAw
GzEZMBcGA1UEAwwQY2EudnBuLml3ZS5jbG91ZDAeFw0xODAyMjYxMzQ3MTlaFw0y
ODAyMjQxMzQ3MTlaMBYxFDASBgNVBAMMCzAwMC0wMDAtMDAxMIIBIjANBgkqhkiG
9w0BAQEFAAOCAQ8AMIIBCgKCAQEAwJ1tR58niEkL2kA1L7iXtTSbfLC7xtwNCFtD
1VKQ9T+IAjqcsL4MDzvR2MIHz8qtaMGhviPaJBxf2yJYvSWvaug/pgHcIV4bC54l
mQKdje6OlxTLAONI5dtAvFwLBRldfVoXRHeK7hYqBlBcuI4Uiv1gUs/fcM/sdgXm
gzLkamS3hLn7SzjR9hF87Ly9lsFrkDEbpz1z3hPJ0jbV1DVO+4jWYbJgeZiB7R/Y
1atxSFcs0n9IxznJhnaVKKiT2omprb/VWSH+5TDVP2aV56Bx49OTyzlZoaKqKjpN
t+/s3X8VdsUFC08irnQzvf2ZwXdLv7IsZdbDMYOT7B4px0RfUQIDAQABo4GcMIGZ
MAkGA1UdEwQCMAAwHQYDVR0OBBYEFLyVkrPTcjd/xZQZZwWuu22Sq0waMEsGA1Ud
IwREMEKAFA4zgt6zMoqn27LHnShN83uroDGMoR+kHTAbMRkwFwYDVQQDDBBjYS52
cG4uaXdlLmNsb3VkggkAiaRtFzd4IGYwEwYDVR0lBAwwCgYIKwYBBQUHAwIwCwYD
VR0PBAQDAgeAMA0GCSqGSIb3DQEBCwUAA4IBAQBn9Bms0CvqDkl5zqHERv4S7WWJ
nQ+PjQwgJ0ao95+MQiAue3te4A/ps4J94vYYJzp+Udm9moHhUu3BTd+4dl2s0xzi
UTxDdWtDn74Aj4H4t7+A9lrGPloHJHrcIG++WEmvD2E5yKVjmCjLL9nQ8q6Gs294
RwS7k1NDvLr34V61YU0vIex4s1IhLLfeQJP0bmywGmySHvdNf095UUnrq3Jnju5e
mCFebvuKlWbKmNNRmoUqED2XnCJ17UXoFHIYfs3D/VV2MBeZOCgHZDIyq+6KLtSm
TbCKyqXMnioJggf64vfUQB6nZhq8Yyqan6eF7mWRFfKWY8TuVtNoxSXgGZ1v
-----END CERTIFICATE-----
