Certificate:
    Data:
        Version: 3 (0x2)
        Serial Number:
            ac:4f:47:59:93:ce:30:cc:ec:4c:77:bf:2a:8b:3e:cf
    Signature Algorithm: sha256WithRSAEncryption
        Issuer: CN=ca.vpn.iwe.cloud
        Validity
            Not Before: Mar  7 14:12:29 2018 GMT
            Not After : Mar  4 14:12:29 2028 GMT
        Subject: CN=1efed7ea-fa3a-4572-a17e-83e24825849f
        Subject Public Key Info:
            Public Key Algorithm: rsaEncryption
                Public-Key: (2048 bit)
                Modulus:
                    00:b8:5c:58:30:b0:02:2d:3c:69:14:01:80:80:00:
                    94:86:ce:04:b8:a7:4f:d3:56:16:11:ce:1f:e5:90:
                    f8:0e:0e:14:fd:d9:f3:d0:f4:e9:24:79:84:e3:ad:
                    23:8f:da:fe:ed:98:97:1c:c1:9f:e1:6e:ce:43:65:
                    6c:ca:cf:94:70:6c:7a:df:80:75:c7:6d:87:a8:c9:
                    a3:4b:0d:ad:0f:ef:b2:5a:1b:75:ec:c0:96:e0:6c:
                    b6:e9:7a:80:44:49:93:ca:73:4e:bb:76:9e:ff:7b:
                    1b:83:b5:8c:51:27:57:df:9e:39:74:a4:5e:63:0a:
                    df:36:88:17:19:66:03:e8:78:4c:f6:64:34:14:b0:
                    6f:e2:e1:16:35:d4:5e:5e:a2:05:c3:4e:79:65:61:
                    a0:08:d7:ab:7f:3b:87:0a:33:65:6a:90:c8:99:9e:
                    7e:1b:e8:fc:a5:66:e0:a0:b1:0b:93:d8:dd:74:55:
                    44:82:d4:6a:ce:3f:25:b9:49:dc:c6:64:53:9f:6c:
                    b3:f1:84:d3:06:f9:ea:2a:f6:f3:35:b0:05:08:8b:
                    0f:d7:a9:50:cd:59:95:9d:d2:b7:05:ab:68:c2:2d:
                    1c:67:d2:c5:89:eb:70:7c:be:e5:b7:a9:4e:ef:d5:
                    a8:23:7c:d7:49:c9:e0:cf:5c:d6:72:e8:f6:10:ba:
                    d3:7d
                Exponent: 65537 (0x10001)
        X509v3 extensions:
            X509v3 Basic Constraints: 
                CA:FALSE
            X509v3 Subject Key Identifier: 
                95:DE:22:F4:BF:E5:20:F4:D7:ED:A3:2B:E4:76:06:A2:D5:A1:75:70
            X509v3 Authority Key Identifier: 
                keyid:0E:33:82:DE:B3:32:8A:A7:DB:B2:C7:9D:28:4D:F3:7B:AB:A0:31:8C
                DirName:/CN=ca.vpn.iwe.cloud
                serial:89:A4:6D:17:37:78:20:66

            X509v3 Extended Key Usage: 
                TLS Web Client Authentication
            X509v3 Key Usage: 
                Digital Signature
    Signature Algorithm: sha256WithRSAEncryption
         64:ae:5b:cc:fe:6b:9c:c1:f5:c7:0a:a2:d6:8f:29:70:31:fb:
         1a:c2:24:b8:5e:3d:3c:f2:f1:ec:2d:f2:5e:b5:24:a2:06:5d:
         89:b3:a6:16:f4:e3:fd:7f:bf:ba:ba:57:7b:ad:9a:a0:7b:6b:
         d4:95:83:02:6d:56:48:4e:85:65:eb:d8:c7:c5:c7:a2:59:cf:
         a3:35:ad:81:7c:05:ee:c0:27:f9:62:45:99:d6:e4:49:b5:24:
         82:55:60:7b:09:cb:27:25:c0:8a:8c:c8:81:79:0c:a0:d5:57:
         95:73:2c:75:7d:c5:87:ed:6d:93:66:10:ac:23:8b:6d:46:b2:
         07:63:0b:c7:d6:a9:e6:05:6b:ad:99:8a:7c:fd:43:4d:5a:5d:
         67:08:46:e7:17:1e:4e:d5:71:97:64:dd:05:11:d0:6c:1e:a3:
         a5:4d:29:7d:72:4e:02:33:b7:99:7d:e2:6c:87:50:61:82:22:
         f1:dc:00:79:99:5f:7d:3b:a5:b5:02:59:ca:28:e6:f5:cd:08:
         ec:ac:ae:c0:f7:14:97:b9:2d:86:5b:0d:63:05:b6:b6:d8:72:
         d9:10:30:fa:e1:78:38:bb:90:6f:02:93:ce:13:6a:cc:91:46:
         d8:05:4d:c2:20:cc:b4:6f:2b:f1:c8:e8:33:b0:89:80:21:d1:
         28:15:3c:ce
-----BEGIN CERTIFICATE-----
MIIDcjCCAlqgAwIBAgIRAKxPR1mTzjDM7Ex3vyqLPs8wDQYJKoZIhvcNAQELBQAw
GzEZMBcGA1UEAwwQY2EudnBuLml3ZS5jbG91ZDAeFw0xODAzMDcxNDEyMjlaFw0y
ODAzMDQxNDEyMjlaMC8xLTArBgNVBAMMJDFlZmVkN2VhLWZhM2EtNDU3Mi1hMTdl
LTgzZTI0ODI1ODQ5ZjCCASIwDQYJKoZIhvcNAQEBBQADggEPADCCAQoCggEBALhc
WDCwAi08aRQBgIAAlIbOBLinT9NWFhHOH+WQ+A4OFP3Z89D06SR5hOOtI4/a/u2Y
lxzBn+FuzkNlbMrPlHBset+Adcdth6jJo0sNrQ/vslobdezAluBstul6gERJk8pz
Trt2nv97G4O1jFEnV9+eOXSkXmMK3zaIFxlmA+h4TPZkNBSwb+LhFjXUXl6iBcNO
eWVhoAjXq387hwozZWqQyJmefhvo/KVm4KCxC5PY3XRVRILUas4/JblJ3MZkU59s
s/GE0wb56ir28zWwBQiLD9epUM1ZlZ3StwWraMItHGfSxYnrcHy+5bepTu/VqCN8
10nJ4M9c1nLo9hC6030CAwEAAaOBnDCBmTAJBgNVHRMEAjAAMB0GA1UdDgQWBBSV
3iL0v+Ug9Nftoyvkdgai1aF1cDBLBgNVHSMERDBCgBQOM4LeszKKp9uyx50oTfN7
q6AxjKEfpB0wGzEZMBcGA1UEAwwQY2EudnBuLml3ZS5jbG91ZIIJAImkbRc3eCBm
MBMGA1UdJQQMMAoGCCsGAQUFBwMCMAsGA1UdDwQEAwIHgDANBgkqhkiG9w0BAQsF
AAOCAQEAZK5bzP5rnMH1xwqi1o8pcDH7GsIkuF49PPLx7C3yXrUkogZdibOmFvTj
/X+/urpXe62aoHtr1JWDAm1WSE6FZevYx8XHolnPozWtgXwF7sAn+WJFmdbkSbUk
glVgewnLJyXAiozIgXkMoNVXlXMsdX3Fh+1tk2YQrCOLbUayB2MLx9ap5gVrrZmK
fP1DTVpdZwhG5xceTtVxl2TdBRHQbB6jpU0pfXJOAjO3mX3ibIdQYYIi8dwAeZlf
fTultQJZyijm9c0I7KyuwPcUl7kthlsNYwW2tthy2RAw+uF4OLuQbwKTzhNqzJFG
2AVNwiDMtG8r8cjoM7CJgCHRKBU8zg==
-----END CERTIFICATE-----
