Certificate:
    Data:
        Version: 3 (0x2)
        Serial Number:
            ac:4f:47:59:93:ce:30:cc:ec:4c:77:bf:2a:8b:3f:00
    Signature Algorithm: sha256WithRSAEncryption
        Issuer: CN=ca.vpn.iwe.cloud
        Validity
            Not Before: Mar 29 21:06:50 2018 GMT
            Not After : Mar 26 21:06:50 2028 GMT
        Subject: CN=58e2fe1928694cc08f5e97e76389c0b1
        Subject Public Key Info:
            Public Key Algorithm: rsaEncryption
                Public-Key: (2048 bit)
                Modulus:
                    00:d0:da:7c:e7:66:c2:ce:89:49:2a:17:fd:9a:e4:
                    16:d0:30:31:26:0a:ed:26:d4:45:b5:d1:18:7c:36:
                    52:aa:6c:ba:89:f3:68:cb:62:9f:a0:99:b6:cf:34:
                    82:3c:e3:fd:64:07:96:f3:71:da:b8:46:d3:14:23:
                    7f:8b:fa:25:92:e0:c8:e3:40:94:3c:1f:83:90:d3:
                    a4:7d:5a:49:ae:95:4f:3a:62:7b:d9:e5:23:32:9e:
                    30:14:6b:17:1c:25:23:7c:57:41:42:65:5b:ba:35:
                    b8:f9:73:d1:9c:03:57:16:29:24:c2:6e:d1:43:82:
                    e3:a4:6e:af:98:b3:e6:ef:ee:72:c3:d0:98:f2:a4:
                    bb:8b:2a:b1:5c:03:5e:a7:2a:d6:76:71:ce:12:56:
                    37:b2:f2:f4:f0:54:22:f2:2f:eb:e8:09:87:c8:18:
                    c9:82:fc:67:f7:60:c5:55:03:02:80:27:41:1f:f8:
                    5c:61:8e:29:69:1e:e6:75:20:e4:de:88:1f:55:1d:
                    f2:b4:90:64:42:cd:8e:86:49:9e:1f:c9:28:eb:33:
                    fe:e9:e9:0a:ec:b1:a1:7b:a2:7c:2b:02:33:c3:ed:
                    5c:d3:6b:90:6d:20:96:3f:d2:6b:bc:53:75:6f:58:
                    95:fc:35:d8:9c:d6:70:52:16:0f:e9:68:e7:50:64:
                    2f:0d
                Exponent: 65537 (0x10001)
        X509v3 extensions:
            X509v3 Basic Constraints: 
                CA:FALSE
            X509v3 Subject Key Identifier: 
                92:4A:05:68:CC:CF:E7:FB:79:F2:5F:8B:00:1E:33:D2:9F:C9:1C:CC
            X509v3 Authority Key Identifier: 
                keyid:0E:33:82:DE:B3:32:8A:A7:DB:B2:C7:9D:28:4D:F3:7B:AB:A0:31:8C
                DirName:/CN=ca.vpn.iwe.cloud
                serial:89:A4:6D:17:37:78:20:66

            X509v3 Extended Key Usage: 
                TLS Web Client Authentication
            X509v3 Key Usage: 
                Digital Signature
    Signature Algorithm: sha256WithRSAEncryption
         94:2d:15:93:27:69:4e:37:30:fe:b8:b4:31:7a:22:01:dc:48:
         e0:63:f8:92:61:a8:2d:30:1a:c9:63:af:bb:78:f9:68:b3:88:
         2c:13:f6:a8:3a:fa:e3:8d:2c:30:65:61:c2:c6:85:be:52:cc:
         b0:19:29:88:42:ed:7f:f4:fb:9b:0c:9d:4d:b3:1e:3c:d5:f9:
         99:13:74:f5:e9:7d:29:78:7a:1b:06:d7:3d:3a:5d:94:f6:ae:
         37:8f:0a:7e:9c:0d:9e:29:98:1e:9a:19:6c:22:a7:45:36:99:
         39:28:a5:90:9b:0f:2f:b8:e9:50:8b:52:fe:f5:c2:fb:c9:62:
         58:3d:5a:29:1f:80:50:63:e0:a7:29:ad:d3:e9:b8:ec:d1:aa:
         a3:61:b6:e0:6f:10:a6:32:36:e1:6b:f0:26:42:76:37:d0:f9:
         a4:81:a7:49:25:ca:23:de:90:d6:e1:d3:c3:a8:13:56:57:42:
         74:f9:43:7c:35:5e:8b:21:21:49:c7:3d:b9:5a:8d:c4:50:5a:
         d4:30:ff:21:aa:81:fb:67:51:de:ca:de:ad:a8:5c:b9:ad:ed:
         a8:57:39:ae:9c:52:99:67:f4:a1:f5:a2:71:01:90:15:3a:0c:
         93:9d:c3:fb:6c:e1:01:92:29:a5:f4:63:55:c4:51:63:b9:ae:
         8c:5f:d7:74
-----BEGIN CERTIFICATE-----
MIIDbjCCAlagAwIBAgIRAKxPR1mTzjDM7Ex3vyqLPwAwDQYJKoZIhvcNAQELBQAw
GzEZMBcGA1UEAwwQY2EudnBuLml3ZS5jbG91ZDAeFw0xODAzMjkyMTA2NTBaFw0y
ODAzMjYyMTA2NTBaMCsxKTAnBgNVBAMMIDU4ZTJmZTE5Mjg2OTRjYzA4ZjVlOTdl
NzYzODljMGIxMIIBIjANBgkqhkiG9w0BAQEFAAOCAQ8AMIIBCgKCAQEA0Np852bC
zolJKhf9muQW0DAxJgrtJtRFtdEYfDZSqmy6ifNoy2KfoJm2zzSCPOP9ZAeW83Ha
uEbTFCN/i/olkuDI40CUPB+DkNOkfVpJrpVPOmJ72eUjMp4wFGsXHCUjfFdBQmVb
ujW4+XPRnANXFikkwm7RQ4LjpG6vmLPm7+5yw9CY8qS7iyqxXANepyrWdnHOElY3
svL08FQi8i/r6AmHyBjJgvxn92DFVQMCgCdBH/hcYY4paR7mdSDk3ogfVR3ytJBk
Qs2OhkmeH8ko6zP+6ekK7LGhe6J8KwIzw+1c02uQbSCWP9JrvFN1b1iV/DXYnNZw
UhYP6WjnUGQvDQIDAQABo4GcMIGZMAkGA1UdEwQCMAAwHQYDVR0OBBYEFJJKBWjM
z+f7efJfiwAeM9KfyRzMMEsGA1UdIwREMEKAFA4zgt6zMoqn27LHnShN83uroDGM
oR+kHTAbMRkwFwYDVQQDDBBjYS52cG4uaXdlLmNsb3VkggkAiaRtFzd4IGYwEwYD
VR0lBAwwCgYIKwYBBQUHAwIwCwYDVR0PBAQDAgeAMA0GCSqGSIb3DQEBCwUAA4IB
AQCULRWTJ2lONzD+uLQxeiIB3EjgY/iSYagtMBrJY6+7ePlos4gsE/aoOvrjjSww
ZWHCxoW+UsywGSmIQu1/9PubDJ1Nsx481fmZE3T16X0peHobBtc9Ol2U9q43jwp+
nA2eKZgemhlsIqdFNpk5KKWQmw8vuOlQi1L+9cL7yWJYPVopH4BQY+CnKa3T6bjs
0aqjYbbgbxCmMjbha/AmQnY30PmkgadJJcoj3pDW4dPDqBNWV0J0+UN8NV6LISFJ
xz25Wo3EUFrUMP8hqoH7Z1Heyt6tqFy5re2oVzmunFKZZ/Sh9aJxAZAVOgyTncP7
bOEBkiml9GNVxFFjua6MX9d0
-----END CERTIFICATE-----
