Certificate:
    Data:
        Version: 3 (0x2)
        Serial Number:
            ac:4f:47:59:93:ce:30:cc:ec:4c:77:bf:2a:8b:3e:e0
    Signature Algorithm: sha256WithRSAEncryption
        Issuer: CN=ca.vpn.iwe.cloud
        Validity
            Not Before: Mar 12 10:51:15 2018 GMT
            Not After : Mar  9 10:51:15 2028 GMT
        Subject: CN=6409762c-e369-40ba-b19b-b770e365b3fe
        Subject Public Key Info:
            Public Key Algorithm: rsaEncryption
                Public-Key: (2048 bit)
                Modulus:
                    00:b9:09:77:9e:df:8b:5c:23:61:f9:c2:6a:83:1e:
                    fd:59:85:fa:67:88:bf:72:19:69:0c:10:cb:73:7f:
                    91:9b:6b:92:f1:0b:1a:04:14:45:cd:49:51:ed:61:
                    f9:6b:fa:be:aa:e4:ea:56:c7:1e:1c:06:f8:f7:ad:
                    27:93:56:95:4a:6a:c4:d5:a5:db:9e:e4:2c:7a:c8:
                    d1:5d:45:78:91:93:2c:74:9d:42:9f:d9:e5:af:ad:
                    83:2f:ed:9b:74:60:75:df:f2:49:d0:cb:16:a2:87:
                    ca:cb:95:11:28:42:4e:17:9b:4a:2b:e6:fe:8b:bf:
                    49:c7:3e:87:63:c3:aa:9e:81:ad:e7:38:7f:88:4c:
                    29:d7:a8:c6:76:6a:51:03:7c:a5:2e:9a:01:66:97:
                    20:6d:59:82:14:61:b5:25:4c:7a:a3:9a:2f:73:c1:
                    ab:a7:c8:ec:3c:e0:5b:fa:26:b2:b6:11:48:77:14:
                    97:c8:50:98:6d:68:dd:ca:73:a3:7e:ef:ac:5b:d0:
                    ff:30:22:81:c5:a7:f8:2a:32:64:9e:f1:d7:0e:a2:
                    9d:e1:5c:b9:e8:89:96:d2:f0:86:e5:2f:00:de:e1:
                    1f:04:84:8c:00:10:aa:90:29:d1:10:6c:f1:83:9b:
                    30:c4:00:be:4f:4f:b5:93:4c:4c:87:7f:df:7c:7c:
                    42:a7
                Exponent: 65537 (0x10001)
        X509v3 extensions:
            X509v3 Basic Constraints: 
                CA:FALSE
            X509v3 Subject Key Identifier: 
                4B:43:40:52:96:BE:16:3D:25:02:2C:44:EB:34:FF:C5:E4:39:EB:2B
            X509v3 Authority Key Identifier: 
                keyid:0E:33:82:DE:B3:32:8A:A7:DB:B2:C7:9D:28:4D:F3:7B:AB:A0:31:8C
                DirName:/CN=ca.vpn.iwe.cloud
                serial:89:A4:6D:17:37:78:20:66

            X509v3 Extended Key Usage: 
                TLS Web Client Authentication
            X509v3 Key Usage: 
                Digital Signature
    Signature Algorithm: sha256WithRSAEncryption
         7d:40:7e:83:20:fb:5f:68:f2:f9:9b:25:34:53:4a:b9:69:81:
         4f:fa:c3:77:d0:fb:0a:78:b9:ce:b9:aa:57:eb:3c:96:2d:09:
         56:ac:73:fe:85:cd:06:9a:c4:10:69:49:99:ef:81:b4:a3:00:
         a3:99:59:e6:74:22:76:c7:72:0e:30:28:f3:52:14:60:f7:a8:
         41:46:e2:f1:2c:4a:1d:c8:ee:c2:f3:8b:8c:9f:3c:f5:9e:d1:
         bf:47:26:bc:cd:f9:2d:4a:92:d7:60:c0:01:89:9e:7a:ba:30:
         91:8a:4b:2e:3a:b2:ea:d6:84:42:92:b0:1c:5a:15:7c:31:a7:
         0e:18:0d:92:f0:54:ca:2a:cf:b2:68:c9:7c:c9:ae:9b:81:e8:
         06:e7:66:4c:7b:7f:eb:68:6a:11:d5:21:fb:17:95:33:a9:5c:
         bb:d1:67:61:01:27:1c:91:5f:42:ea:d6:30:b1:17:f4:1d:43:
         00:e9:c3:c0:e4:57:f9:d5:19:d7:12:08:e3:22:cb:77:4a:6f:
         1f:a5:63:4a:47:24:33:52:10:85:07:53:55:2e:26:ef:2c:a2:
         0a:ef:bf:b3:5c:02:e8:0d:64:56:68:0b:4d:8d:42:d8:53:6b:
         37:b7:07:d9:a5:9c:c4:87:14:0a:1f:25:80:d2:22:10:df:61:
         8c:b9:c9:12
-----BEGIN CERTIFICATE-----
MIIDcjCCAlqgAwIBAgIRAKxPR1mTzjDM7Ex3vyqLPuAwDQYJKoZIhvcNAQELBQAw
GzEZMBcGA1UEAwwQY2EudnBuLml3ZS5jbG91ZDAeFw0xODAzMTIxMDUxMTVaFw0y
ODAzMDkxMDUxMTVaMC8xLTArBgNVBAMMJDY0MDk3NjJjLWUzNjktNDBiYS1iMTli
LWI3NzBlMzY1YjNmZTCCASIwDQYJKoZIhvcNAQEBBQADggEPADCCAQoCggEBALkJ
d57fi1wjYfnCaoMe/VmF+meIv3IZaQwQy3N/kZtrkvELGgQURc1JUe1h+Wv6vqrk
6lbHHhwG+PetJ5NWlUpqxNWl257kLHrI0V1FeJGTLHSdQp/Z5a+tgy/tm3Rgdd/y
SdDLFqKHysuVEShCThebSivm/ou/Scc+h2PDqp6Brec4f4hMKdeoxnZqUQN8pS6a
AWaXIG1ZghRhtSVMeqOaL3PBq6fI7DzgW/omsrYRSHcUl8hQmG1o3cpzo37vrFvQ
/zAigcWn+CoyZJ7x1w6ineFcueiJltLwhuUvAN7hHwSEjAAQqpAp0RBs8YObMMQA
vk9PtZNMTId/33x8QqcCAwEAAaOBnDCBmTAJBgNVHRMEAjAAMB0GA1UdDgQWBBRL
Q0BSlr4WPSUCLETrNP/F5DnrKzBLBgNVHSMERDBCgBQOM4LeszKKp9uyx50oTfN7
q6AxjKEfpB0wGzEZMBcGA1UEAwwQY2EudnBuLml3ZS5jbG91ZIIJAImkbRc3eCBm
MBMGA1UdJQQMMAoGCCsGAQUFBwMCMAsGA1UdDwQEAwIHgDANBgkqhkiG9w0BAQsF
AAOCAQEAfUB+gyD7X2jy+ZslNFNKuWmBT/rDd9D7Cni5zrmqV+s8li0JVqxz/oXN
BprEEGlJme+BtKMAo5lZ5nQidsdyDjAo81IUYPeoQUbi8SxKHcjuwvOLjJ889Z7R
v0cmvM35LUqS12DAAYmeerowkYpLLjqy6taEQpKwHFoVfDGnDhgNkvBUyirPsmjJ
fMmum4HoBudmTHt/62hqEdUh+xeVM6lcu9FnYQEnHJFfQurWMLEX9B1DAOnDwORX
+dUZ1xII4yLLd0pvH6VjSkckM1IQhQdTVS4m7yyiCu+/s1wC6A1kVmgLTY1C2FNr
N7cH2aWcxIcUCh8lgNIiEN9hjLnJEg==
-----END CERTIFICATE-----
