Certificate:
    Data:
        Version: 3 (0x2)
        Serial Number:
            ac:4f:47:59:93:ce:30:cc:ec:4c:77:bf:2a:8b:3e:dd
    Signature Algorithm: sha256WithRSAEncryption
        Issuer: CN=ca.vpn.iwe.cloud
        Validity
            Not Before: Mar  8 10:44:42 2018 GMT
            Not After : Mar  5 10:44:42 2028 GMT
        Subject: CN=aa622569-352f-4e5d-a9f7-de88cfee057a
        Subject Public Key Info:
            Public Key Algorithm: rsaEncryption
                Public-Key: (2048 bit)
                Modulus:
                    00:d7:05:a1:dc:20:2d:f6:6b:45:b0:63:bd:13:11:
                    a7:77:55:0c:7a:f2:fd:68:af:57:cc:88:92:f4:9d:
                    6d:95:ec:2e:89:00:66:f3:9c:bd:42:99:d8:a5:cf:
                    25:31:94:b1:b2:8a:ee:5d:bb:5c:d0:0e:9f:2b:18:
                    ff:6b:34:00:7a:af:5e:8f:ea:61:50:66:0f:0a:79:
                    a2:53:b6:2b:d4:17:15:9f:45:05:93:bc:b5:9d:63:
                    20:6a:11:36:b1:36:0f:83:26:43:4e:ac:ed:3f:56:
                    24:82:25:68:2d:48:92:53:0a:ca:9d:db:97:5f:38:
                    e3:68:fd:ed:ab:b6:1d:46:4c:a1:fa:e6:bf:c3:36:
                    39:2a:98:41:94:4d:7a:16:b2:8a:1c:47:23:30:36:
                    41:eb:7a:59:d7:41:3a:39:a4:f7:1c:14:d9:29:a7:
                    6f:f8:0b:6d:7b:1c:32:2d:28:ec:6b:34:7f:91:66:
                    5b:7d:ad:40:59:2b:82:8a:c8:07:65:58:58:cf:4b:
                    b6:08:58:1c:45:6d:64:99:37:68:a5:ff:52:8c:ae:
                    cc:67:82:3b:4e:d3:34:9c:87:0d:e9:11:d9:35:43:
                    e4:85:f2:b8:df:e1:47:87:cb:f8:f7:4e:67:f5:11:
                    08:fc:30:cd:1b:6e:28:d8:5a:b0:f0:33:1d:5e:a0:
                    b6:db
                Exponent: 65537 (0x10001)
        X509v3 extensions:
            X509v3 Basic Constraints: 
                CA:FALSE
            X509v3 Subject Key Identifier: 
                E3:0F:5D:83:17:D4:8A:22:2C:79:C3:78:6B:99:7F:D7:AE:B4:1C:B2
            X509v3 Authority Key Identifier: 
                keyid:0E:33:82:DE:B3:32:8A:A7:DB:B2:C7:9D:28:4D:F3:7B:AB:A0:31:8C
                DirName:/CN=ca.vpn.iwe.cloud
                serial:89:A4:6D:17:37:78:20:66

            X509v3 Extended Key Usage: 
                TLS Web Client Authentication
            X509v3 Key Usage: 
                Digital Signature
    Signature Algorithm: sha256WithRSAEncryption
         90:e8:2e:7a:75:c7:89:86:88:bf:9e:b6:cd:4c:2b:30:68:3e:
         41:94:2f:5a:36:03:64:50:a1:19:51:61:5f:99:dd:04:c1:f1:
         24:a6:cf:00:62:d1:b3:a9:de:48:63:32:45:58:d8:cc:60:03:
         69:27:e4:da:2a:5d:6e:cd:84:43:fe:d0:2a:9a:9f:ad:6f:96:
         01:b8:30:47:2e:7b:39:96:7e:46:50:27:e4:99:54:07:e7:bb:
         53:4b:72:87:77:39:09:1f:3f:4f:c5:9d:84:66:1f:a9:22:70:
         d7:54:b0:6c:03:77:e6:3a:49:7e:7f:28:87:87:85:65:ac:c6:
         b1:d1:4a:77:a5:5e:4f:5c:89:b6:50:64:c9:90:ab:92:57:cf:
         b1:87:65:c4:28:1d:b2:3f:ac:ef:92:97:c3:c6:99:3b:b7:d6:
         bd:ca:c3:ea:be:d8:1c:6d:81:d9:23:d8:db:57:c8:3a:56:2f:
         30:48:d6:3e:43:36:83:f1:04:d9:1a:14:f5:a5:8e:b3:af:6e:
         4d:ed:8d:35:3f:c9:d3:22:20:f3:60:4e:16:7b:ae:db:7c:dd:
         ca:cc:0d:90:32:ca:e5:92:2c:0f:54:58:ce:14:cd:25:d3:59:
         14:30:83:38:ba:16:63:7c:b5:00:81:0c:02:96:d3:a2:6f:08:
         84:b9:01:ec
-----BEGIN CERTIFICATE-----
MIIDcjCCAlqgAwIBAgIRAKxPR1mTzjDM7Ex3vyqLPt0wDQYJKoZIhvcNAQELBQAw
GzEZMBcGA1UEAwwQY2EudnBuLml3ZS5jbG91ZDAeFw0xODAzMDgxMDQ0NDJaFw0y
ODAzMDUxMDQ0NDJaMC8xLTArBgNVBAMMJGFhNjIyNTY5LTM1MmYtNGU1ZC1hOWY3
LWRlODhjZmVlMDU3YTCCASIwDQYJKoZIhvcNAQEBBQADggEPADCCAQoCggEBANcF
odwgLfZrRbBjvRMRp3dVDHry/WivV8yIkvSdbZXsLokAZvOcvUKZ2KXPJTGUsbKK
7l27XNAOnysY/2s0AHqvXo/qYVBmDwp5olO2K9QXFZ9FBZO8tZ1jIGoRNrE2D4Mm
Q06s7T9WJIIlaC1IklMKyp3bl18442j97au2HUZMofrmv8M2OSqYQZRNehayihxH
IzA2Qet6WddBOjmk9xwU2Smnb/gLbXscMi0o7Gs0f5FmW32tQFkrgorIB2VYWM9L
tghYHEVtZJk3aKX/UoyuzGeCO07TNJyHDekR2TVD5IXyuN/hR4fL+PdOZ/URCPww
zRtuKNhasPAzHV6gttsCAwEAAaOBnDCBmTAJBgNVHRMEAjAAMB0GA1UdDgQWBBTj
D12DF9SKIix5w3hrmX/XrrQcsjBLBgNVHSMERDBCgBQOM4LeszKKp9uyx50oTfN7
q6AxjKEfpB0wGzEZMBcGA1UEAwwQY2EudnBuLml3ZS5jbG91ZIIJAImkbRc3eCBm
MBMGA1UdJQQMMAoGCCsGAQUFBwMCMAsGA1UdDwQEAwIHgDANBgkqhkiG9w0BAQsF
AAOCAQEAkOguenXHiYaIv562zUwrMGg+QZQvWjYDZFChGVFhX5ndBMHxJKbPAGLR
s6neSGMyRVjYzGADaSfk2ipdbs2EQ/7QKpqfrW+WAbgwRy57OZZ+RlAn5JlUB+e7
U0tyh3c5CR8/T8WdhGYfqSJw11SwbAN35jpJfn8oh4eFZazGsdFKd6VeT1yJtlBk
yZCrklfPsYdlxCgdsj+s75KXw8aZO7fWvcrD6r7YHG2B2SPY21fIOlYvMEjWPkM2
g/EE2RoU9aWOs69uTe2NNT/J0yIg82BOFnuu23zdyswNkDLK5ZIsD1RYzhTNJdNZ
FDCDOLoWY3y1AIEMApbTom8IhLkB7A==
-----END CERTIFICATE-----
