Certificate:
    Data:
        Version: 3 (0x2)
        Serial Number:
            ac:4f:47:59:93:ce:30:cc:ec:4c:77:bf:2a:8b:3e:d4
    Signature Algorithm: sha256WithRSAEncryption
        Issuer: CN=ca.vpn.iwe.cloud
        Validity
            Not Before: Mar  7 15:01:00 2018 GMT
            Not After : Mar  4 15:01:00 2028 GMT
        Subject: CN=c9e51640-1da5-42ca-a6fa-a3564d3e4ae3
        Subject Public Key Info:
            Public Key Algorithm: rsaEncryption
                Public-Key: (2048 bit)
                Modulus:
                    00:df:ac:5d:de:1a:2c:14:b2:e1:0e:0f:e0:77:a4:
                    89:1f:2f:85:50:f1:90:ef:ba:3c:38:2a:43:14:21:
                    f5:57:18:26:f3:e4:ef:84:e7:6c:90:73:ec:b1:d2:
                    b9:9e:a4:56:75:e0:e2:2d:b6:67:53:51:ba:3f:8e:
                    2b:a3:60:1a:ff:46:1e:85:12:bb:57:0c:fd:90:47:
                    b6:f1:8f:ba:a3:36:86:53:a0:5b:a8:dd:2c:56:b4:
                    08:bc:dc:e9:f3:bf:38:cd:de:d4:7b:1b:c7:c4:d1:
                    4a:d0:fe:55:21:db:38:5e:67:9e:1d:29:19:7a:76:
                    d6:52:ec:00:a3:8d:51:78:61:ad:f3:fc:1a:d8:86:
                    72:68:9c:a0:50:2b:64:f6:39:e5:13:3c:84:c8:22:
                    d8:d5:19:ff:1a:e7:9a:e7:13:f7:7e:93:1c:66:43:
                    07:04:e9:a3:d1:05:7b:93:c7:35:13:af:50:d7:b1:
                    9c:0a:f2:f7:95:79:db:cc:d6:1c:68:2b:12:0f:f8:
                    14:86:23:98:8f:57:8c:fd:cf:e9:42:35:6c:1b:e0:
                    62:26:97:61:ef:56:2a:06:5a:c5:ba:bf:68:5d:b2:
                    10:43:ce:3e:5d:8e:31:7b:f6:a6:35:f3:32:32:e6:
                    a7:aa:88:53:5e:fa:6d:fe:b1:63:7d:03:6d:22:ff:
                    08:a7
                Exponent: 65537 (0x10001)
        X509v3 extensions:
            X509v3 Basic Constraints: 
                CA:FALSE
            X509v3 Subject Key Identifier: 
                04:22:26:2F:D1:04:86:C7:F1:FE:B8:A5:89:C8:5C:65:B9:2B:B5:5A
            X509v3 Authority Key Identifier: 
                keyid:0E:33:82:DE:B3:32:8A:A7:DB:B2:C7:9D:28:4D:F3:7B:AB:A0:31:8C
                DirName:/CN=ca.vpn.iwe.cloud
                serial:89:A4:6D:17:37:78:20:66

            X509v3 Extended Key Usage: 
                TLS Web Client Authentication
            X509v3 Key Usage: 
                Digital Signature
    Signature Algorithm: sha256WithRSAEncryption
         09:0d:57:bb:40:75:05:14:be:d4:ad:c6:44:c8:76:47:38:1c:
         21:5b:ca:23:41:b7:8b:e9:a3:a5:d1:38:46:5e:35:25:62:2a:
         0e:66:61:34:d8:a7:10:e9:2f:1c:7b:7b:da:c1:27:96:c0:61:
         4a:90:bc:79:ae:22:70:de:6d:fb:08:09:fd:22:6a:a1:6c:9d:
         c9:97:42:92:06:08:c5:99:a3:3f:2d:25:50:42:c0:00:7f:23:
         d6:48:f2:59:5b:cc:65:db:91:81:8a:59:39:b3:1d:f5:73:41:
         ab:5c:1c:f3:3e:4c:fb:c6:08:ff:d5:1f:55:d7:7e:56:a0:93:
         a0:0b:90:d2:da:a8:00:cb:27:85:7f:95:8c:3d:f2:58:05:b4:
         36:98:fc:bf:96:c3:62:79:cc:5c:eb:e7:53:ca:29:05:01:6c:
         ca:8d:d6:95:4f:95:1d:6e:d8:f0:cc:d1:ce:35:2d:a3:48:1d:
         bf:27:5e:7e:69:0a:fa:da:0b:76:1f:7a:26:03:ec:ac:d7:eb:
         02:a4:d5:12:aa:60:21:39:a0:b9:07:e4:c5:b1:b6:f0:de:7c:
         ff:81:81:c1:f3:54:bf:a5:1f:a4:99:a0:7b:26:b5:d2:e6:a7:
         80:67:9b:79:86:d1:02:ed:62:b3:3b:a7:94:71:b5:09:c6:8f:
         a9:e7:02:54
-----BEGIN CERTIFICATE-----
MIIDcjCCAlqgAwIBAgIRAKxPR1mTzjDM7Ex3vyqLPtQwDQYJKoZIhvcNAQELBQAw
GzEZMBcGA1UEAwwQY2EudnBuLml3ZS5jbG91ZDAeFw0xODAzMDcxNTAxMDBaFw0y
ODAzMDQxNTAxMDBaMC8xLTArBgNVBAMMJGM5ZTUxNjQwLTFkYTUtNDJjYS1hNmZh
LWEzNTY0ZDNlNGFlMzCCASIwDQYJKoZIhvcNAQEBBQADggEPADCCAQoCggEBAN+s
Xd4aLBSy4Q4P4HekiR8vhVDxkO+6PDgqQxQh9VcYJvPk74TnbJBz7LHSuZ6kVnXg
4i22Z1NRuj+OK6NgGv9GHoUSu1cM/ZBHtvGPuqM2hlOgW6jdLFa0CLzc6fO/OM3e
1Hsbx8TRStD+VSHbOF5nnh0pGXp21lLsAKONUXhhrfP8GtiGcmicoFArZPY55RM8
hMgi2NUZ/xrnmucT936THGZDBwTpo9EFe5PHNROvUNexnAry95V528zWHGgrEg/4
FIYjmI9XjP3P6UI1bBvgYiaXYe9WKgZaxbq/aF2yEEPOPl2OMXv2pjXzMjLmp6qI
U176bf6xY30DbSL/CKcCAwEAAaOBnDCBmTAJBgNVHRMEAjAAMB0GA1UdDgQWBBQE
IiYv0QSGx/H+uKWJyFxluSu1WjBLBgNVHSMERDBCgBQOM4LeszKKp9uyx50oTfN7
q6AxjKEfpB0wGzEZMBcGA1UEAwwQY2EudnBuLml3ZS5jbG91ZIIJAImkbRc3eCBm
MBMGA1UdJQQMMAoGCCsGAQUFBwMCMAsGA1UdDwQEAwIHgDANBgkqhkiG9w0BAQsF
AAOCAQEACQ1Xu0B1BRS+1K3GRMh2RzgcIVvKI0G3i+mjpdE4Rl41JWIqDmZhNNin
EOkvHHt72sEnlsBhSpC8ea4icN5t+wgJ/SJqoWydyZdCkgYIxZmjPy0lUELAAH8j
1kjyWVvMZduRgYpZObMd9XNBq1wc8z5M+8YI/9UfVdd+VqCToAuQ0tqoAMsnhX+V
jD3yWAW0Npj8v5bDYnnMXOvnU8opBQFsyo3WlU+VHW7Y8MzRzjUto0gdvydefmkK
+toLdh96JgPsrNfrAqTVEqpgITmguQfkxbG28N58/4GBwfNUv6UfpJmgeya10uan
gGebeYbRAu1iszunlHG1CcaPqecCVA==
-----END CERTIFICATE-----
