Certificate:
    Data:
        Version: 3 (0x2)
        Serial Number:
            ac:4f:47:59:93:ce:30:cc:ec:4c:77:bf:2a:8b:3e:ea
    Signature Algorithm: sha256WithRSAEncryption
        Issuer: CN=ca.vpn.iwe.cloud
        Validity
            Not Before: Mar 29 17:52:16 2018 GMT
            Not After : Mar 26 17:52:16 2028 GMT
        Subject: CN=e52a07ddc72e4b35beaa271d03d82f0ei
        Subject Public Key Info:
            Public Key Algorithm: rsaEncryption
                Public-Key: (2048 bit)
                Modulus:
                    00:ea:0f:55:27:8c:9b:92:bf:a0:cd:df:5b:fd:82:
                    f4:fb:a3:3f:26:be:01:18:ce:32:aa:06:d9:b4:e0:
                    61:a2:e5:68:56:32:3d:b1:5e:64:ce:6a:62:8a:7b:
                    41:f7:89:63:a7:f1:46:a2:31:12:68:db:4f:4f:43:
                    3e:fb:eb:7c:77:a8:b9:97:62:83:27:8d:66:f4:b8:
                    ed:1a:63:c3:b1:a5:d0:5a:97:d7:f6:64:40:a0:8c:
                    e6:00:35:44:d4:ee:8a:89:b6:d3:43:90:43:14:df:
                    c0:b2:34:54:92:c1:e0:f7:5b:7e:28:44:ab:f2:c6:
                    5b:b5:fb:ba:73:99:fe:39:a0:50:d0:24:0f:47:03:
                    51:33:a7:d8:7f:d3:fc:f1:79:ba:b7:74:3b:6a:4d:
                    0e:be:e5:a1:8d:45:cd:06:64:3f:b6:10:3f:95:5b:
                    f3:6d:d4:00:27:95:77:eb:c7:d0:b5:78:a7:67:1f:
                    7d:c0:9d:66:01:0b:db:2c:a7:2a:25:d1:d7:e4:98:
                    4f:70:75:90:52:d7:9d:c6:ee:d9:bc:cb:f1:ec:c7:
                    1d:3f:04:92:9f:b0:af:f1:2b:b9:43:ab:27:c7:c3:
                    84:0b:63:ef:7d:fd:1f:97:22:29:21:97:65:ed:e9:
                    69:05:a5:6e:b6:a6:b7:e7:66:a6:db:95:15:7a:81:
                    25:7b
                Exponent: 65537 (0x10001)
        X509v3 extensions:
            X509v3 Basic Constraints: 
                CA:FALSE
            X509v3 Subject Key Identifier: 
                63:11:10:EC:A9:74:36:36:5A:71:A4:02:2F:70:8F:49:7B:16:DC:CF
            X509v3 Authority Key Identifier: 
                keyid:0E:33:82:DE:B3:32:8A:A7:DB:B2:C7:9D:28:4D:F3:7B:AB:A0:31:8C
                DirName:/CN=ca.vpn.iwe.cloud
                serial:89:A4:6D:17:37:78:20:66

            X509v3 Extended Key Usage: 
                TLS Web Client Authentication
            X509v3 Key Usage: 
                Digital Signature
    Signature Algorithm: sha256WithRSAEncryption
         89:24:f7:f6:95:7f:13:66:32:be:23:ca:57:34:f8:a6:9e:da:
         c1:c4:33:e6:73:ff:2a:17:0c:42:46:a0:6b:e1:aa:bb:15:2c:
         4a:5c:64:1a:43:78:75:2c:d9:32:bb:4e:76:ad:83:58:48:81:
         f1:e0:11:22:a9:55:59:82:37:7e:04:93:50:9f:c9:cb:c6:42:
         02:49:46:6e:c3:41:60:e9:86:6e:b6:52:34:31:d0:16:70:70:
         9b:89:7d:a4:29:ed:83:c9:62:46:7d:2a:b2:82:3f:b5:ba:3e:
         77:10:a4:fd:be:1c:e1:56:20:3c:8b:bf:45:6a:b3:1d:5a:83:
         b5:89:3d:29:36:02:e4:80:74:5e:9a:f1:15:82:bf:a1:74:9b:
         12:b9:bb:97:e4:de:1b:fd:99:b5:27:b5:c9:12:48:1a:09:42:
         ab:65:01:a3:4c:90:af:ae:f6:f4:72:c6:72:17:b7:ae:45:c0:
         68:78:e7:40:7b:02:66:30:16:99:9e:fa:77:14:4f:ea:38:59:
         d0:2d:e8:13:b7:18:d3:b1:66:8d:77:58:d8:df:58:d0:7b:c2:
         06:d8:72:eb:26:f1:29:73:3a:b7:3f:03:d7:2d:08:a8:57:ea:
         7f:1f:de:d4:6d:a5:65:25:8a:6c:73:a5:e9:2e:ed:07:a1:24:
         d2:25:7d:82
-----BEGIN CERTIFICATE-----
MIIDbzCCAlegAwIBAgIRAKxPR1mTzjDM7Ex3vyqLPuowDQYJKoZIhvcNAQELBQAw
GzEZMBcGA1UEAwwQY2EudnBuLml3ZS5jbG91ZDAeFw0xODAzMjkxNzUyMTZaFw0y
ODAzMjYxNzUyMTZaMCwxKjAoBgNVBAMMIWU1MmEwN2RkYzcyZTRiMzViZWFhMjcx
ZDAzZDgyZjBlaTCCASIwDQYJKoZIhvcNAQEBBQADggEPADCCAQoCggEBAOoPVSeM
m5K/oM3fW/2C9PujPya+ARjOMqoG2bTgYaLlaFYyPbFeZM5qYop7QfeJY6fxRqIx
EmjbT09DPvvrfHeouZdigyeNZvS47Rpjw7Gl0FqX1/ZkQKCM5gA1RNTuiom200OQ
QxTfwLI0VJLB4PdbfihEq/LGW7X7unOZ/jmgUNAkD0cDUTOn2H/T/PF5urd0O2pN
Dr7loY1FzQZkP7YQP5Vb823UACeVd+vH0LV4p2cffcCdZgEL2yynKiXR1+SYT3B1
kFLXncbu2bzL8ezHHT8Ekp+wr/EruUOrJ8fDhAtj7339H5ciKSGXZe3paQWlbram
t+dmptuVFXqBJXsCAwEAAaOBnDCBmTAJBgNVHRMEAjAAMB0GA1UdDgQWBBRjERDs
qXQ2NlpxpAIvcI9JexbczzBLBgNVHSMERDBCgBQOM4LeszKKp9uyx50oTfN7q6Ax
jKEfpB0wGzEZMBcGA1UEAwwQY2EudnBuLml3ZS5jbG91ZIIJAImkbRc3eCBmMBMG
A1UdJQQMMAoGCCsGAQUFBwMCMAsGA1UdDwQEAwIHgDANBgkqhkiG9w0BAQsFAAOC
AQEAiST39pV/E2YyviPKVzT4pp7awcQz5nP/KhcMQkaga+GquxUsSlxkGkN4dSzZ
MrtOdq2DWEiB8eARIqlVWYI3fgSTUJ/Jy8ZCAklGbsNBYOmGbrZSNDHQFnBwm4l9
pCntg8liRn0qsoI/tbo+dxCk/b4c4VYgPIu/RWqzHVqDtYk9KTYC5IB0XprxFYK/
oXSbErm7l+TeG/2ZtSe1yRJIGglCq2UBo0yQr6729HLGche3rkXAaHjnQHsCZjAW
mZ76dxRP6jhZ0C3oE7cY07FmjXdY2N9Y0HvCBthy6ybxKXM6tz8D1y0IqFfqfx/e
1G2lZSWKbHOl6S7tB6Ek0iV9gg==
-----END CERTIFICATE-----
