Certificate:
    Data:
        Version: 3 (0x2)
        Serial Number:
            ac:4f:47:59:93:ce:30:cc:ec:4c:77:bf:2a:8b:3e:f2
    Signature Algorithm: sha256WithRSAEncryption
        Issuer: CN=ca.vpn.iwe.cloud
        Validity
            Not Before: Mar 29 17:59:10 2018 GMT
            Not After : Mar 26 17:59:10 2028 GMT
        Subject: CN=e52a07ddc72e4b35beaa271d03d82f0eq
        Subject Public Key Info:
            Public Key Algorithm: rsaEncryption
                Public-Key: (2048 bit)
                Modulus:
                    00:cc:fa:dd:62:c3:9f:fc:c4:53:90:a2:f6:21:5a:
                    de:66:99:f3:4b:4c:19:29:7f:e3:dc:dc:65:e9:d0:
                    31:67:e4:3f:e8:15:fe:b7:e6:b9:c4:6a:15:d0:b8:
                    a6:73:d9:fa:0d:68:8c:52:d0:f6:8c:9e:7f:ea:e1:
                    73:fc:14:44:f2:5f:a2:a2:58:ad:0c:6b:0a:21:5d:
                    b8:6b:fb:e4:18:97:60:c7:8b:3a:c5:0f:be:09:63:
                    d1:81:4e:51:6e:df:76:77:83:42:57:a5:64:5f:9d:
                    20:53:33:4c:95:84:0d:53:64:79:d3:80:77:5b:9c:
                    5f:dc:d1:66:ce:d1:1f:69:c6:6b:25:5a:c0:89:f4:
                    6f:cd:82:d6:26:01:a5:5c:3d:94:ff:f9:66:86:d4:
                    54:45:49:e9:38:40:19:c5:1f:f9:7a:29:3e:7c:9e:
                    d3:aa:b2:a3:d5:91:ad:22:96:aa:d0:d9:97:46:42:
                    5c:55:b0:56:9f:27:94:c7:ad:cf:14:c0:70:43:9a:
                    41:b5:62:e8:c3:8e:f6:78:42:c3:6f:e8:d7:03:92:
                    4e:11:cf:4d:5d:84:9e:dd:52:48:a7:47:6a:b9:8b:
                    35:01:6c:48:07:84:8c:23:2b:bf:f3:eb:0b:e8:f5:
                    c7:8d:a6:c2:b9:f6:54:41:62:15:1e:4f:e4:b1:20:
                    2c:59
                Exponent: 65537 (0x10001)
        X509v3 extensions:
            X509v3 Basic Constraints: 
                CA:FALSE
            X509v3 Subject Key Identifier: 
                55:1E:A7:93:87:F5:CA:98:40:08:CB:DC:31:C6:0E:2B:1D:7C:8B:9B
            X509v3 Authority Key Identifier: 
                keyid:0E:33:82:DE:B3:32:8A:A7:DB:B2:C7:9D:28:4D:F3:7B:AB:A0:31:8C
                DirName:/CN=ca.vpn.iwe.cloud
                serial:89:A4:6D:17:37:78:20:66

            X509v3 Extended Key Usage: 
                TLS Web Client Authentication
            X509v3 Key Usage: 
                Digital Signature
    Signature Algorithm: sha256WithRSAEncryption
         3b:ca:61:26:f1:b2:55:68:8c:5d:96:15:cb:d6:df:8d:c1:c9:
         8f:90:b8:37:14:dc:0d:25:fb:dd:c5:07:f8:22:22:03:2c:35:
         8c:46:32:a1:5f:2d:f1:19:74:38:c6:32:c0:41:9b:f1:2c:1e:
         5c:12:9c:f3:29:cc:70:0a:b0:84:c2:b2:24:57:a5:f8:98:39:
         55:8f:23:0b:9e:44:2c:06:fd:0a:4c:9d:5f:52:92:49:e3:ea:
         46:02:e5:85:3f:e5:ff:43:1e:e6:f6:47:f0:30:26:49:ae:2a:
         09:ed:db:47:3c:83:81:d2:50:81:4c:44:43:7a:58:e4:95:a7:
         0a:fd:ae:c0:50:0b:10:ff:4c:76:39:8e:6f:11:81:1f:a8:a0:
         f0:df:f9:7b:5c:a5:96:fd:8a:f5:81:48:2e:7b:3f:9a:df:2a:
         aa:3e:31:fa:a7:94:f1:5e:72:3e:68:02:89:38:14:3d:62:37:
         19:f6:f8:72:12:53:d3:81:35:e8:54:ec:55:9d:b9:e0:d0:73:
         71:ae:c9:0f:4a:40:db:3d:cd:c1:f7:89:2e:48:d6:50:a4:35:
         ab:90:58:0f:64:25:3e:8e:09:30:85:6e:64:68:f6:a8:56:aa:
         12:16:5a:d4:6c:66:05:f7:2b:28:f3:32:b3:b8:5a:0f:e1:35:
         e0:6a:00:7c
-----BEGIN CERTIFICATE-----
MIIDbzCCAlegAwIBAgIRAKxPR1mTzjDM7Ex3vyqLPvIwDQYJKoZIhvcNAQELBQAw
GzEZMBcGA1UEAwwQY2EudnBuLml3ZS5jbG91ZDAeFw0xODAzMjkxNzU5MTBaFw0y
ODAzMjYxNzU5MTBaMCwxKjAoBgNVBAMMIWU1MmEwN2RkYzcyZTRiMzViZWFhMjcx
ZDAzZDgyZjBlcTCCASIwDQYJKoZIhvcNAQEBBQADggEPADCCAQoCggEBAMz63WLD
n/zEU5Ci9iFa3maZ80tMGSl/49zcZenQMWfkP+gV/rfmucRqFdC4pnPZ+g1ojFLQ
9oyef+rhc/wURPJfoqJYrQxrCiFduGv75BiXYMeLOsUPvglj0YFOUW7fdneDQlel
ZF+dIFMzTJWEDVNkedOAd1ucX9zRZs7RH2nGayVawIn0b82C1iYBpVw9lP/5ZobU
VEVJ6ThAGcUf+XopPnye06qyo9WRrSKWqtDZl0ZCXFWwVp8nlMetzxTAcEOaQbVi
6MOO9nhCw2/o1wOSThHPTV2Ent1SSKdHarmLNQFsSAeEjCMrv/PrC+j1x42mwrn2
VEFiFR5P5LEgLFkCAwEAAaOBnDCBmTAJBgNVHRMEAjAAMB0GA1UdDgQWBBRVHqeT
h/XKmEAIy9wxxg4rHXyLmzBLBgNVHSMERDBCgBQOM4LeszKKp9uyx50oTfN7q6Ax
jKEfpB0wGzEZMBcGA1UEAwwQY2EudnBuLml3ZS5jbG91ZIIJAImkbRc3eCBmMBMG
A1UdJQQMMAoGCCsGAQUFBwMCMAsGA1UdDwQEAwIHgDANBgkqhkiG9w0BAQsFAAOC
AQEAO8phJvGyVWiMXZYVy9bfjcHJj5C4NxTcDSX73cUH+CIiAyw1jEYyoV8t8Rl0
OMYywEGb8SweXBKc8ynMcAqwhMKyJFel+Jg5VY8jC55ELAb9CkydX1KSSePqRgLl
hT/l/0Me5vZH8DAmSa4qCe3bRzyDgdJQgUxEQ3pY5JWnCv2uwFALEP9MdjmObxGB
H6ig8N/5e1yllv2K9YFILns/mt8qqj4x+qeU8V5yPmgCiTgUPWI3Gfb4chJT04E1
6FTsVZ254NBzca7JD0pA2z3NwfeJLkjWUKQ1q5BYD2QlPo4JMIVuZGj2qFaqEhZa
1GxmBfcrKPMys7haD+E14GoAfA==
-----END CERTIFICATE-----
