Certificate:
    Data:
        Version: 3 (0x2)
        Serial Number:
            ac:4f:47:59:93:ce:30:cc:ec:4c:77:bf:2a:8b:3e:e3
    Signature Algorithm: sha256WithRSAEncryption
        Issuer: CN=ca.vpn.iwe.cloud
        Validity
            Not Before: Mar 29 17:44:33 2018 GMT
            Not After : Mar 26 17:44:33 2028 GMT
        Subject: CN=e52a07ddc72e4b35beaa271d03d82f0eb
        Subject Public Key Info:
            Public Key Algorithm: rsaEncryption
                Public-Key: (2048 bit)
                Modulus:
                    00:d2:6e:97:38:40:4a:94:ef:e0:2b:38:8b:92:ed:
                    7c:7c:c2:46:04:7e:f2:79:da:83:7e:61:bc:2e:b5:
                    a5:95:0c:24:a3:0c:0c:29:d8:f9:03:7c:d1:fb:ac:
                    75:d1:87:0f:5a:ba:54:35:19:14:43:57:02:8a:00:
                    f9:05:e3:bb:e4:7b:7e:d0:11:80:bc:0a:7a:bd:74:
                    c0:f5:bc:54:68:46:a3:49:52:18:8d:5b:ae:ff:fa:
                    56:f0:79:80:bf:e3:bc:ec:5a:eb:b7:49:7a:4c:f5:
                    92:5b:4d:4a:46:ca:e6:b6:49:ef:c1:90:f2:57:4f:
                    d5:31:ce:2a:ca:c2:17:77:1f:c4:d6:84:f3:00:90:
                    5f:51:d7:bb:67:77:0e:01:a7:7a:c4:98:25:50:ae:
                    c1:06:d4:c7:e8:b7:79:2c:fd:cc:49:01:1c:05:64:
                    9d:38:1a:6e:b4:49:b9:00:fb:c4:4e:43:a0:c1:6f:
                    1e:7e:a3:92:06:55:41:95:39:01:d7:65:d4:e3:97:
                    2d:c0:89:ab:b0:07:f5:54:ec:28:43:04:df:5e:0f:
                    b6:fa:ea:3f:c4:c2:91:e2:d3:af:cf:d6:6f:39:df:
                    43:8b:bb:0c:8f:2d:40:69:df:c8:fc:35:d9:41:da:
                    c0:04:1c:b5:c0:17:a3:9a:91:f0:02:03:3c:49:8a:
                    2b:19
                Exponent: 65537 (0x10001)
        X509v3 extensions:
            X509v3 Basic Constraints: 
                CA:FALSE
            X509v3 Subject Key Identifier: 
                FB:A5:E0:8A:18:E8:CE:35:3E:48:36:FA:ED:83:D8:36:C0:B1:21:E8
            X509v3 Authority Key Identifier: 
                keyid:0E:33:82:DE:B3:32:8A:A7:DB:B2:C7:9D:28:4D:F3:7B:AB:A0:31:8C
                DirName:/CN=ca.vpn.iwe.cloud
                serial:89:A4:6D:17:37:78:20:66

            X509v3 Extended Key Usage: 
                TLS Web Client Authentication
            X509v3 Key Usage: 
                Digital Signature
    Signature Algorithm: sha256WithRSAEncryption
         30:c3:13:be:e0:93:a6:5d:d2:48:4d:0d:c6:e2:64:06:56:6f:
         b4:e3:9d:23:53:2b:de:1e:4b:2d:be:92:c3:67:00:93:de:a1:
         34:02:32:04:23:7c:5e:aa:a5:9f:af:9e:c8:2c:c1:33:a5:71:
         2c:3e:1c:9b:64:f1:15:44:4e:0b:80:2e:e6:6c:e6:89:de:55:
         19:d8:a1:65:86:81:83:15:3c:5d:56:8e:09:07:59:3e:20:8b:
         5b:c0:de:55:9a:e1:71:78:d3:b4:a0:e8:d6:f4:f6:ae:2a:d1:
         ad:87:29:97:5a:a3:a2:11:0b:cc:91:a6:a9:f7:44:23:ad:14:
         9d:7b:e2:93:b0:49:24:99:01:1d:6d:d6:04:f3:b6:7e:51:8c:
         fa:ec:c1:55:57:a8:17:50:7c:be:6c:be:33:46:25:94:96:82:
         9b:5e:eb:b1:b1:4c:b9:40:12:12:8d:fa:17:c4:c8:43:23:59:
         a0:68:d5:c6:2f:ce:bf:2b:3e:a1:50:c4:d1:3f:e1:f1:24:74:
         68:38:7f:87:ca:71:c0:44:3b:95:aa:7f:27:ec:f7:64:55:31:
         fc:1c:17:f3:c4:13:d3:71:92:d5:3b:3d:f8:eb:ef:3d:82:52:
         85:10:dc:59:92:33:32:d4:08:92:3d:38:76:58:94:10:df:7b:
         c5:2f:1d:1c
-----BEGIN CERTIFICATE-----
MIIDbzCCAlegAwIBAgIRAKxPR1mTzjDM7Ex3vyqLPuMwDQYJKoZIhvcNAQELBQAw
GzEZMBcGA1UEAwwQY2EudnBuLml3ZS5jbG91ZDAeFw0xODAzMjkxNzQ0MzNaFw0y
ODAzMjYxNzQ0MzNaMCwxKjAoBgNVBAMMIWU1MmEwN2RkYzcyZTRiMzViZWFhMjcx
ZDAzZDgyZjBlYjCCASIwDQYJKoZIhvcNAQEBBQADggEPADCCAQoCggEBANJulzhA
SpTv4Cs4i5LtfHzCRgR+8nnag35hvC61pZUMJKMMDCnY+QN80fusddGHD1q6VDUZ
FENXAooA+QXju+R7ftARgLwKer10wPW8VGhGo0lSGI1brv/6VvB5gL/jvOxa67dJ
ekz1kltNSkbK5rZJ78GQ8ldP1THOKsrCF3cfxNaE8wCQX1HXu2d3DgGnesSYJVCu
wQbUx+i3eSz9zEkBHAVknTgabrRJuQD7xE5DoMFvHn6jkgZVQZU5Addl1OOXLcCJ
q7AH9VTsKEME314PtvrqP8TCkeLTr8/WbznfQ4u7DI8tQGnfyPw12UHawAQctcAX
o5qR8AIDPEmKKxkCAwEAAaOBnDCBmTAJBgNVHRMEAjAAMB0GA1UdDgQWBBT7peCK
GOjONT5INvrtg9g2wLEh6DBLBgNVHSMERDBCgBQOM4LeszKKp9uyx50oTfN7q6Ax
jKEfpB0wGzEZMBcGA1UEAwwQY2EudnBuLml3ZS5jbG91ZIIJAImkbRc3eCBmMBMG
A1UdJQQMMAoGCCsGAQUFBwMCMAsGA1UdDwQEAwIHgDANBgkqhkiG9w0BAQsFAAOC
AQEAMMMTvuCTpl3SSE0NxuJkBlZvtOOdI1Mr3h5LLb6Sw2cAk96hNAIyBCN8Xqql
n6+eyCzBM6VxLD4cm2TxFUROC4Au5mzmid5VGdihZYaBgxU8XVaOCQdZPiCLW8De
VZrhcXjTtKDo1vT2rirRrYcpl1qjohELzJGmqfdEI60UnXvik7BJJJkBHW3WBPO2
flGM+uzBVVeoF1B8vmy+M0YllJaCm17rsbFMuUASEo36F8TIQyNZoGjVxi/Ovys+
oVDE0T/h8SR0aDh/h8pxwEQ7lap/J+z3ZFUx/BwX88QT03GS1Ts9+OvvPYJShRDc
WZIzMtQIkj04dliUEN97xS8dHA==
-----END CERTIFICATE-----
