Certificate:
    Data:
        Version: 3 (0x2)
        Serial Number:
            ac:4f:47:59:93:ce:30:cc:ec:4c:77:bf:2a:8b:3e:d2
    Signature Algorithm: sha256WithRSAEncryption
        Issuer: CN=ca.vpn.iwe.cloud
        Validity
            Not Before: Mar  7 14:14:12 2018 GMT
            Not After : Mar  4 14:14:12 2028 GMT
        Subject: CN=ef1b1321-92be-46e5-8d14-9d62f4978eaa
        Subject Public Key Info:
            Public Key Algorithm: rsaEncryption
                Public-Key: (2048 bit)
                Modulus:
                    00:b8:43:87:7f:14:2c:16:b8:1c:de:2a:a8:c4:4e:
                    3a:2f:eb:8c:b8:82:3b:f7:fe:78:45:51:d0:05:07:
                    d2:3b:c9:df:db:93:9b:18:b8:36:ba:b2:26:e9:5f:
                    18:e2:84:7b:68:5a:21:35:c5:2c:d9:05:5e:77:72:
                    02:1c:33:f4:1f:dd:ab:e6:98:47:af:ad:2b:a2:3d:
                    d2:10:f7:e5:e9:55:85:39:b7:f1:12:c6:0a:39:69:
                    3e:85:f7:4b:7e:df:32:18:f5:fe:59:f6:1b:ec:ca:
                    dc:1c:73:c1:46:c4:ec:e9:46:64:4c:52:64:3e:57:
                    43:4d:3d:89:a3:80:3e:fd:03:77:ee:9d:d9:14:e2:
                    b8:12:5d:a0:24:a4:f1:2b:aa:c2:ea:eb:4f:12:bc:
                    e3:ff:8a:42:60:46:09:5e:f9:70:09:c5:0d:9d:a2:
                    a7:9d:29:ad:5b:ba:50:93:8a:7b:76:c6:b9:46:11:
                    a0:bb:34:bd:8a:6c:d2:b9:b6:e1:4b:cb:3a:21:5b:
                    92:8a:46:bc:b1:44:d6:01:5b:82:84:39:2b:18:91:
                    da:6c:10:0c:55:f6:6a:07:cd:21:e2:52:d9:05:ba:
                    f9:f3:57:f5:cb:bc:f9:27:c6:d9:8c:13:1f:30:b3:
                    9f:92:fe:3f:0a:b8:16:94:6a:4b:2a:20:48:da:52:
                    23:d3
                Exponent: 65537 (0x10001)
        X509v3 extensions:
            X509v3 Basic Constraints: 
                CA:FALSE
            X509v3 Subject Key Identifier: 
                18:C7:D0:E8:AB:92:53:78:93:58:B0:D8:F4:0C:D0:1D:8D:0F:27:34
            X509v3 Authority Key Identifier: 
                keyid:0E:33:82:DE:B3:32:8A:A7:DB:B2:C7:9D:28:4D:F3:7B:AB:A0:31:8C
                DirName:/CN=ca.vpn.iwe.cloud
                serial:89:A4:6D:17:37:78:20:66

            X509v3 Extended Key Usage: 
                TLS Web Client Authentication
            X509v3 Key Usage: 
                Digital Signature
    Signature Algorithm: sha256WithRSAEncryption
         99:c7:d9:bc:02:a6:00:2b:52:cf:1e:b0:7d:9b:71:20:c0:9d:
         00:b7:00:24:34:6d:43:c6:c1:a8:dc:4b:0b:f2:f5:a3:2a:e7:
         15:76:0d:f0:4c:05:43:f5:5d:6b:db:ec:90:14:81:90:9a:77:
         79:a3:41:e7:42:d5:d4:0b:5a:82:63:59:0a:87:2f:51:43:b3:
         f1:f0:2a:3c:a2:e3:41:78:d6:d7:4b:1a:36:41:51:5f:fb:db:
         51:6d:40:c8:60:50:2a:22:fc:87:73:2c:97:b0:40:af:b0:84:
         9b:9c:53:01:03:b8:a3:12:04:45:dc:d1:ec:f6:f1:ed:24:f0:
         76:27:bf:b4:54:f6:4d:76:cf:fd:d6:cd:50:3d:d1:a6:64:45:
         e8:22:ef:31:9b:86:06:23:5a:6b:fe:ec:d3:40:47:a1:86:56:
         e7:35:8a:42:61:41:61:b6:5f:80:95:85:07:a3:f1:11:95:64:
         56:3e:6c:4f:9d:e2:45:cf:db:a8:4f:4b:22:50:92:dd:c5:6a:
         ce:61:10:61:8a:df:0f:79:09:c4:04:6e:1d:6f:1f:ca:88:d3:
         ce:48:19:8f:89:63:bb:ef:b8:77:9c:6a:5f:b9:e4:cc:f3:9b:
         ba:ee:71:7b:77:90:af:18:c2:87:0b:b9:5c:01:5b:c0:53:e9:
         f2:da:7b:42
-----BEGIN CERTIFICATE-----
MIIDcjCCAlqgAwIBAgIRAKxPR1mTzjDM7Ex3vyqLPtIwDQYJKoZIhvcNAQELBQAw
GzEZMBcGA1UEAwwQY2EudnBuLml3ZS5jbG91ZDAeFw0xODAzMDcxNDE0MTJaFw0y
ODAzMDQxNDE0MTJaMC8xLTArBgNVBAMMJGVmMWIxMzIxLTkyYmUtNDZlNS04ZDE0
LTlkNjJmNDk3OGVhYTCCASIwDQYJKoZIhvcNAQEBBQADggEPADCCAQoCggEBALhD
h38ULBa4HN4qqMROOi/rjLiCO/f+eEVR0AUH0jvJ39uTmxi4NrqyJulfGOKEe2ha
ITXFLNkFXndyAhwz9B/dq+aYR6+tK6I90hD35elVhTm38RLGCjlpPoX3S37fMhj1
/ln2G+zK3BxzwUbE7OlGZExSZD5XQ009iaOAPv0Dd+6d2RTiuBJdoCSk8Suqwurr
TxK84/+KQmBGCV75cAnFDZ2ip50prVu6UJOKe3bGuUYRoLs0vYps0rm24UvLOiFb
kopGvLFE1gFbgoQ5KxiR2mwQDFX2agfNIeJS2QW6+fNX9cu8+SfG2YwTHzCzn5L+
Pwq4FpRqSyogSNpSI9MCAwEAAaOBnDCBmTAJBgNVHRMEAjAAMB0GA1UdDgQWBBQY
x9Doq5JTeJNYsNj0DNAdjQ8nNDBLBgNVHSMERDBCgBQOM4LeszKKp9uyx50oTfN7
q6AxjKEfpB0wGzEZMBcGA1UEAwwQY2EudnBuLml3ZS5jbG91ZIIJAImkbRc3eCBm
MBMGA1UdJQQMMAoGCCsGAQUFBwMCMAsGA1UdDwQEAwIHgDANBgkqhkiG9w0BAQsF
AAOCAQEAmcfZvAKmACtSzx6wfZtxIMCdALcAJDRtQ8bBqNxLC/L1oyrnFXYN8EwF
Q/Vda9vskBSBkJp3eaNB50LV1AtagmNZCocvUUOz8fAqPKLjQXjW10saNkFRX/vb
UW1AyGBQKiL8h3Msl7BAr7CEm5xTAQO4oxIERdzR7Pbx7STwdie/tFT2TXbP/dbN
UD3RpmRF6CLvMZuGBiNaa/7s00BHoYZW5zWKQmFBYbZfgJWFB6PxEZVkVj5sT53i
Rc/bqE9LIlCS3cVqzmEQYYrfD3kJxARuHW8fyojTzkgZj4lju++4d5xqX7nkzPOb
uu5xe3eQrxjChwu5XAFbwFPp8tp7Qg==
-----END CERTIFICATE-----
