Certificate:
    Data:
        Version: 3 (0x2)
        Serial Number:
            ac:4f:47:59:93:ce:30:cc:ec:4c:77:bf:2a:8b:3e:c8
    Signature Algorithm: sha256WithRSAEncryption
        Issuer: CN=ca.vpn.iwe.cloud
        Validity
            Not Before: Feb 26 16:31:53 2018 GMT
            Not After : Feb 24 16:31:53 2028 GMT
        Subject: CN=nrgbh6rs.pool.iwe.cloud
        Subject Public Key Info:
            Public Key Algorithm: rsaEncryption
                Public-Key: (2048 bit)
                Modulus:
                    00:ac:d7:d9:52:e2:e9:27:0f:38:d1:e7:f9:72:2f:
                    06:a1:94:ee:7b:02:89:1a:b6:c2:66:0b:ad:d5:ee:
                    f2:e3:11:3e:56:52:5d:21:07:dd:80:55:28:50:70:
                    30:12:7f:ce:78:68:06:c0:b4:df:f1:53:dc:2d:7c:
                    6d:47:cd:e2:5b:a8:77:e3:3a:36:95:e5:5b:10:0c:
                    37:fa:5c:86:64:c5:3b:67:97:bd:e4:60:f7:01:aa:
                    b5:7a:48:d0:aa:15:4c:fb:ef:1c:7c:b8:c1:38:5c:
                    a1:d2:b6:c1:d1:96:ef:22:81:56:f8:a4:cd:d1:0a:
                    e7:f3:de:fd:73:4b:8f:da:c3:fb:6a:a8:82:6e:93:
                    a3:5d:e9:f7:86:ac:f5:24:4f:8a:f4:83:c9:ef:0c:
                    60:40:e8:e8:45:3d:ac:ed:5d:7d:1b:6e:d7:b8:62:
                    44:e0:3a:c9:71:0b:d8:3d:f7:24:e8:8c:a4:89:23:
                    a3:35:9c:cc:7f:fc:91:ca:fc:10:53:9c:ed:62:a1:
                    40:e3:c6:6b:34:14:31:2a:e9:12:25:0f:30:4f:7e:
                    91:d9:d9:77:7a:ac:44:76:a0:15:fd:e4:24:e8:a6:
                    6c:39:88:36:0a:77:45:1e:3b:1e:9d:30:18:fe:53:
                    85:e4:5d:2e:d7:9c:c0:98:4c:72:38:19:c3:b9:64:
                    6d:a9
                Exponent: 65537 (0x10001)
        X509v3 extensions:
            X509v3 Basic Constraints: 
                CA:FALSE
            X509v3 Subject Key Identifier: 
                AF:B0:57:3D:AC:D3:36:F1:97:40:54:A4:08:2B:9F:38:6F:1A:E1:2C
            X509v3 Authority Key Identifier: 
                keyid:0E:33:82:DE:B3:32:8A:A7:DB:B2:C7:9D:28:4D:F3:7B:AB:A0:31:8C
                DirName:/CN=ca.vpn.iwe.cloud
                serial:89:A4:6D:17:37:78:20:66

            X509v3 Extended Key Usage: 
                TLS Web Client Authentication
            X509v3 Key Usage: 
                Digital Signature
    Signature Algorithm: sha256WithRSAEncryption
         9c:40:a6:86:81:dd:76:c2:28:11:b2:ef:d3:cf:87:6f:ba:2e:
         24:6b:85:6f:e5:a9:c9:70:48:05:a2:c5:83:17:f1:c7:d4:5c:
         23:f3:13:54:b3:cf:77:11:31:70:81:f2:10:75:be:8b:86:83:
         f9:67:30:67:9b:f1:fb:69:3b:f6:2d:13:6d:aa:b9:aa:5e:70:
         22:91:b7:75:c4:a4:09:91:b5:a5:fc:a3:4a:ce:8a:c2:b1:1d:
         d9:93:84:94:48:c4:95:d9:43:6b:a7:43:ae:c3:70:7e:7d:38:
         00:d7:fa:ad:3d:3d:e4:68:42:a8:af:62:56:13:aa:18:52:b5:
         e9:d9:5b:19:59:7a:cd:40:86:6a:12:2e:04:5e:29:5b:30:b1:
         57:e7:60:e9:9d:92:55:c5:f9:4f:1b:0f:b8:f3:52:f9:ba:0d:
         87:60:c2:8d:f1:03:af:83:ed:21:93:e6:71:ee:d9:0b:5d:c3:
         32:6a:74:16:73:e1:db:f5:f5:47:56:a6:33:b4:7b:45:bd:34:
         ad:21:07:a1:d9:49:05:0c:49:57:a5:bb:6e:74:4f:91:e6:9c:
         91:d3:3e:c7:9a:df:27:7e:7d:07:fe:c7:f8:7d:57:33:c2:16:
         78:4d:e1:f4:ee:68:eb:53:38:fa:d6:42:80:1a:88:c0:7a:23:
         a4:fd:af:c6
-----BEGIN CERTIFICATE-----
MIIDZTCCAk2gAwIBAgIRAKxPR1mTzjDM7Ex3vyqLPsgwDQYJKoZIhvcNAQELBQAw
GzEZMBcGA1UEAwwQY2EudnBuLml3ZS5jbG91ZDAeFw0xODAyMjYxNjMxNTNaFw0y
ODAyMjQxNjMxNTNaMCIxIDAeBgNVBAMMF25yZ2JoNnJzLnBvb2wuaXdlLmNsb3Vk
MIIBIjANBgkqhkiG9w0BAQEFAAOCAQ8AMIIBCgKCAQEArNfZUuLpJw840ef5ci8G
oZTuewKJGrbCZgut1e7y4xE+VlJdIQfdgFUoUHAwEn/OeGgGwLTf8VPcLXxtR83i
W6h34zo2leVbEAw3+lyGZMU7Z5e95GD3Aaq1ekjQqhVM++8cfLjBOFyh0rbB0Zbv
IoFW+KTN0Qrn8979c0uP2sP7aqiCbpOjXen3hqz1JE+K9IPJ7wxgQOjoRT2s7V19
G27XuGJE4DrJcQvYPfck6IykiSOjNZzMf/yRyvwQU5ztYqFA48ZrNBQxKukSJQ8w
T36R2dl3eqxEdqAV/eQk6KZsOYg2CndFHjsenTAY/lOF5F0u15zAmExyOBnDuWRt
qQIDAQABo4GcMIGZMAkGA1UdEwQCMAAwHQYDVR0OBBYEFK+wVz2s0zbxl0BUpAgr
nzhvGuEsMEsGA1UdIwREMEKAFA4zgt6zMoqn27LHnShN83uroDGMoR+kHTAbMRkw
FwYDVQQDDBBjYS52cG4uaXdlLmNsb3VkggkAiaRtFzd4IGYwEwYDVR0lBAwwCgYI
KwYBBQUHAwIwCwYDVR0PBAQDAgeAMA0GCSqGSIb3DQEBCwUAA4IBAQCcQKaGgd12
wigRsu/Tz4dvui4ka4Vv5anJcEgFosWDF/HH1Fwj8xNUs893ETFwgfIQdb6LhoP5
ZzBnm/H7aTv2LRNtqrmqXnAikbd1xKQJkbWl/KNKzorCsR3Zk4SUSMSV2UNrp0Ou
w3B+fTgA1/qtPT3kaEKor2JWE6oYUrXp2VsZWXrNQIZqEi4EXilbMLFX52DpnZJV
xflPGw+481L5ug2HYMKN8QOvg+0hk+Zx7tkLXcMyanQWc+Hb9fVHVqYztHtFvTSt
IQeh2UkFDElXpbtudE+R5pyR0z7Hmt8nfn0H/sf4fVczwhZ4TeH07mjrUzj61kKA
GojAeiOk/a/G
-----END CERTIFICATE-----
