Certificate:
    Data:
        Version: 3 (0x2)
        Serial Number:
            ac:4f:47:59:93:ce:30:cc:ec:4c:77:bf:2a:8b:3e:cd
    Signature Algorithm: sha256WithRSAEncryption
        Issuer: CN=ca.vpn.iwe.cloud
        Validity
            Not Before: Feb 26 17:13:05 2018 GMT
            Not After : Feb 24 17:13:05 2028 GMT
        Subject: CN=peter5
        Subject Public Key Info:
            Public Key Algorithm: rsaEncryption
                Public-Key: (2048 bit)
                Modulus:
                    00:be:38:09:19:b8:e6:bc:a3:bc:2a:3b:ca:b8:81:
                    4f:b0:c7:07:ba:40:05:95:c6:12:c7:45:98:c2:cd:
                    60:47:21:0a:6a:32:cf:63:92:d0:ac:cc:90:f7:8e:
                    7a:7e:8c:7a:84:b2:c1:31:71:61:46:45:0e:36:e5:
                    a2:19:2d:f9:25:6f:33:d9:9d:3d:1c:8d:43:77:89:
                    2d:24:b7:18:bd:d3:0f:60:05:36:b2:4b:32:f1:04:
                    a8:7d:13:89:6d:2f:61:cb:da:e6:0d:f0:08:31:24:
                    49:9c:96:de:43:f3:21:4f:c1:76:5a:73:2a:e4:ca:
                    da:52:75:aa:94:25:9c:ec:36:3b:11:99:77:9c:a9:
                    a7:8c:3b:df:5e:7a:b8:0a:8a:0a:5f:f0:22:99:5b:
                    b4:44:8e:4b:57:d2:5a:64:0f:8c:b6:e4:ba:28:2e:
                    23:27:bb:a1:b1:f7:64:1b:11:a9:53:ec:3b:b8:4a:
                    2b:92:bd:98:7b:bd:44:64:5e:f5:89:fe:c7:5c:ff:
                    9a:eb:11:84:47:b4:f1:13:7f:d9:36:91:7b:f0:f9:
                    f0:21:54:ed:c1:4d:72:2b:09:cd:02:17:2e:ab:3c:
                    a2:20:32:f5:81:7c:73:d7:36:45:8d:2d:16:70:77:
                    3f:b2:34:db:10:4c:9c:eb:fa:db:ec:99:35:ce:fc:
                    76:77
                Exponent: 65537 (0x10001)
        X509v3 extensions:
            X509v3 Basic Constraints: 
                CA:FALSE
            X509v3 Subject Key Identifier: 
                6D:AA:45:4A:90:1D:74:B4:2E:C6:12:88:CE:45:1B:80:CE:17:7E:1E
            X509v3 Authority Key Identifier: 
                keyid:0E:33:82:DE:B3:32:8A:A7:DB:B2:C7:9D:28:4D:F3:7B:AB:A0:31:8C
                DirName:/CN=ca.vpn.iwe.cloud
                serial:89:A4:6D:17:37:78:20:66

            X509v3 Extended Key Usage: 
                TLS Web Client Authentication
            X509v3 Key Usage: 
                Digital Signature
    Signature Algorithm: sha256WithRSAEncryption
         62:ed:04:9d:38:e1:46:10:b3:08:72:f6:cd:39:fa:44:69:94:
         a5:c9:94:f0:ed:be:4b:f2:ab:3f:c3:06:5a:75:57:2e:db:14:
         d2:c7:8e:d9:4c:48:71:31:f0:34:fd:25:18:43:71:c2:01:12:
         e0:cd:82:f4:42:cd:ee:3e:94:6f:b1:4b:f4:18:84:d4:28:1b:
         fd:de:36:7e:06:05:08:c1:e6:25:e5:94:7a:b8:5f:4a:7e:c8:
         20:b5:71:44:b2:a4:ea:f2:a3:5b:7a:3c:d9:50:05:cc:b6:02:
         8f:5e:f1:95:1e:47:85:c9:8b:52:e1:6b:ca:25:4a:27:01:47:
         8f:b0:65:dd:59:b9:58:83:6d:9e:e7:2b:d9:d6:d7:fc:42:13:
         90:db:f4:ec:0c:48:65:30:91:f6:03:ad:d1:42:d9:80:17:c8:
         51:77:d9:a4:06:9f:1b:d9:c9:d1:9c:01:d6:3a:d9:ba:2a:fd:
         44:b5:a7:f9:ef:5c:33:45:dc:28:72:29:ad:3b:d0:5f:69:c6:
         bf:be:42:ba:4a:ca:97:0c:2c:03:ce:bf:17:14:e5:6d:8e:a2:
         1c:d8:65:93:0d:92:05:b3:62:09:10:b8:9d:67:77:c8:ac:a8:
         6c:b3:02:3f:b7:80:57:32:ac:81:c4:1f:c1:1f:3f:b7:3b:d4:
         81:14:e7:64
-----BEGIN CERTIFICATE-----
MIIDVDCCAjygAwIBAgIRAKxPR1mTzjDM7Ex3vyqLPs0wDQYJKoZIhvcNAQELBQAw
GzEZMBcGA1UEAwwQY2EudnBuLml3ZS5jbG91ZDAeFw0xODAyMjYxNzEzMDVaFw0y
ODAyMjQxNzEzMDVaMBExDzANBgNVBAMMBnBldGVyNTCCASIwDQYJKoZIhvcNAQEB
BQADggEPADCCAQoCggEBAL44CRm45ryjvCo7yriBT7DHB7pABZXGEsdFmMLNYEch
Cmoyz2OS0KzMkPeOen6MeoSywTFxYUZFDjblohkt+SVvM9mdPRyNQ3eJLSS3GL3T
D2AFNrJLMvEEqH0TiW0vYcva5g3wCDEkSZyW3kPzIU/BdlpzKuTK2lJ1qpQlnOw2
OxGZd5ypp4w73156uAqKCl/wIplbtESOS1fSWmQPjLbkuiguIye7obH3ZBsRqVPs
O7hKK5K9mHu9RGRe9Yn+x1z/musRhEe08RN/2TaRe/D58CFU7cFNcisJzQIXLqs8
oiAy9YF8c9c2RY0tFnB3P7I02xBMnOv62+yZNc78dncCAwEAAaOBnDCBmTAJBgNV
HRMEAjAAMB0GA1UdDgQWBBRtqkVKkB10tC7GEojORRuAzhd+HjBLBgNVHSMERDBC
gBQOM4LeszKKp9uyx50oTfN7q6AxjKEfpB0wGzEZMBcGA1UEAwwQY2EudnBuLml3
ZS5jbG91ZIIJAImkbRc3eCBmMBMGA1UdJQQMMAoGCCsGAQUFBwMCMAsGA1UdDwQE
AwIHgDANBgkqhkiG9w0BAQsFAAOCAQEAYu0EnTjhRhCzCHL2zTn6RGmUpcmU8O2+
S/KrP8MGWnVXLtsU0seO2UxIcTHwNP0lGENxwgES4M2C9ELN7j6Ub7FL9BiE1Cgb
/d42fgYFCMHmJeWUerhfSn7IILVxRLKk6vKjW3o82VAFzLYCj17xlR5HhcmLUuFr
yiVKJwFHj7Bl3Vm5WINtnucr2dbX/EITkNv07AxIZTCR9gOt0ULZgBfIUXfZpAaf
G9nJ0ZwB1jrZuir9RLWn+e9cM0XcKHIprTvQX2nGv75CukrKlwwsA86/FxTlbY6i
HNhlkw2SBbNiCRC4nWd3yKyobLMCP7eAVzKsgcQfwR8/tzvUgRTnZA==
-----END CERTIFICATE-----
