Certificate:
    Data:
        Version: 3 (0x2)
        Serial Number:
            ac:4f:47:59:93:ce:30:cc:ec:4c:77:bf:2a:8b:3e:cb
    Signature Algorithm: sha256WithRSAEncryption
        Issuer: CN=ca.vpn.iwe.cloud
        Validity
            Not Before: Feb 26 17:12:00 2018 GMT
            Not After : Feb 24 17:12:00 2028 GMT
        Subject: CN=peter3
        Subject Public Key Info:
            Public Key Algorithm: rsaEncryption
                Public-Key: (2048 bit)
                Modulus:
                    00:c8:3a:75:91:a1:7e:a4:3d:08:8f:30:0c:3e:9c:
                    07:5c:9f:59:78:65:ff:3f:0d:62:cc:7f:d4:1c:f1:
                    d5:52:77:32:24:13:88:b6:9b:72:1a:be:b3:3e:8f:
                    57:bd:a9:0f:df:5a:ad:2d:70:0b:40:7e:7a:56:2d:
                    2e:bf:9c:82:fa:82:25:72:db:dd:06:bb:c8:b8:18:
                    6a:fc:51:b5:56:80:bc:e1:83:59:06:04:d1:dc:28:
                    bb:1e:07:f7:e9:dc:a4:76:88:98:ca:fa:cc:4d:b9:
                    ae:68:87:51:96:75:ca:2b:9e:08:56:be:75:af:22:
                    f8:53:fc:8e:8b:29:ae:69:4b:7b:cf:1c:a5:ca:6e:
                    08:0f:f1:1b:1c:62:4f:61:b8:ac:5e:c9:f6:47:f6:
                    b3:d9:43:2c:aa:cf:74:b5:f6:2e:79:4e:18:e0:e9:
                    af:1d:51:d7:b0:3c:8c:02:04:9f:0a:11:40:a2:39:
                    2c:1f:8c:79:fe:45:11:ff:77:42:d1:c7:b8:20:ff:
                    e5:6f:48:cc:f0:ff:ca:48:f1:2b:91:4b:88:d3:fe:
                    4f:c2:37:38:2e:2d:2b:ba:ff:a6:66:97:8c:8a:77:
                    c3:5c:e7:1f:71:02:af:9e:b1:f3:c6:b0:c7:18:3d:
                    a2:7c:f7:7c:8f:26:d6:41:4c:3d:b9:0a:63:54:10:
                    73:45
                Exponent: 65537 (0x10001)
        X509v3 extensions:
            X509v3 Basic Constraints: 
                CA:FALSE
            X509v3 Subject Key Identifier: 
                91:16:C9:C4:22:0A:4F:E1:25:88:5B:27:AC:92:E7:3D:35:FF:D8:B2
            X509v3 Authority Key Identifier: 
                keyid:0E:33:82:DE:B3:32:8A:A7:DB:B2:C7:9D:28:4D:F3:7B:AB:A0:31:8C
                DirName:/CN=ca.vpn.iwe.cloud
                serial:89:A4:6D:17:37:78:20:66

            X509v3 Extended Key Usage: 
                TLS Web Client Authentication
            X509v3 Key Usage: 
                Digital Signature
    Signature Algorithm: sha256WithRSAEncryption
         64:4c:e3:3d:1c:8a:41:3d:29:87:70:e7:d0:23:c7:5f:66:a4:
         51:13:39:ae:ca:8d:e1:d5:48:d6:6b:ad:d2:b5:72:a2:1c:23:
         23:66:de:c9:5f:3e:e2:3f:06:ff:c0:c5:5a:87:77:5f:67:f7:
         85:7b:ad:69:67:a7:e1:1b:6b:e8:1f:9b:22:32:70:79:98:2f:
         89:be:65:b0:ea:5e:5c:05:f5:f0:9c:d4:b2:1d:36:6a:60:c4:
         e0:d0:c4:e0:e3:c4:6a:4c:46:18:c7:1e:28:c4:58:20:09:66:
         d5:00:4e:37:2c:1d:bd:63:8a:29:05:43:6a:b6:53:0e:9d:00:
         59:38:4d:8a:27:bf:cb:8e:c5:d1:a9:c6:f6:56:14:51:a1:b5:
         b7:0e:d5:75:d5:d6:4a:8e:15:a2:a7:75:56:a6:26:85:6c:b2:
         8d:d0:b1:93:46:d7:91:46:7d:57:81:18:af:a7:ef:d0:85:af:
         45:75:9e:c8:92:90:ac:1b:23:8a:29:6e:d5:bf:53:2d:c4:a6:
         b9:39:e0:75:84:e6:94:66:10:b4:07:45:de:34:5e:4d:44:ad:
         1d:7e:0b:3a:2f:ac:fc:39:2d:19:55:a7:51:5d:84:ca:d9:28:
         eb:da:1c:2d:40:43:9b:cd:3d:39:9b:41:14:1b:93:da:3c:9c:
         59:4e:1e:af
-----BEGIN CERTIFICATE-----
MIIDVDCCAjygAwIBAgIRAKxPR1mTzjDM7Ex3vyqLPsswDQYJKoZIhvcNAQELBQAw
GzEZMBcGA1UEAwwQY2EudnBuLml3ZS5jbG91ZDAeFw0xODAyMjYxNzEyMDBaFw0y
ODAyMjQxNzEyMDBaMBExDzANBgNVBAMMBnBldGVyMzCCASIwDQYJKoZIhvcNAQEB
BQADggEPADCCAQoCggEBAMg6dZGhfqQ9CI8wDD6cB1yfWXhl/z8NYsx/1Bzx1VJ3
MiQTiLabchq+sz6PV72pD99arS1wC0B+elYtLr+cgvqCJXLb3Qa7yLgYavxRtVaA
vOGDWQYE0dwoux4H9+ncpHaImMr6zE25rmiHUZZ1yiueCFa+da8i+FP8josprmlL
e88cpcpuCA/xGxxiT2G4rF7J9kf2s9lDLKrPdLX2LnlOGODprx1R17A8jAIEnwoR
QKI5LB+Mef5FEf93QtHHuCD/5W9IzPD/ykjxK5FLiNP+T8I3OC4tK7r/pmaXjIp3
w1znH3ECr56x88awxxg9onz3fI8m1kFMPbkKY1QQc0UCAwEAAaOBnDCBmTAJBgNV
HRMEAjAAMB0GA1UdDgQWBBSRFsnEIgpP4SWIWyeskuc9Nf/YsjBLBgNVHSMERDBC
gBQOM4LeszKKp9uyx50oTfN7q6AxjKEfpB0wGzEZMBcGA1UEAwwQY2EudnBuLml3
ZS5jbG91ZIIJAImkbRc3eCBmMBMGA1UdJQQMMAoGCCsGAQUFBwMCMAsGA1UdDwQE
AwIHgDANBgkqhkiG9w0BAQsFAAOCAQEAZEzjPRyKQT0ph3Dn0CPHX2akURM5rsqN
4dVI1mut0rVyohwjI2beyV8+4j8G/8DFWod3X2f3hXutaWen4Rtr6B+bIjJweZgv
ib5lsOpeXAX18JzUsh02amDE4NDE4OPEakxGGMceKMRYIAlm1QBONywdvWOKKQVD
arZTDp0AWThNiie/y47F0anG9lYUUaG1tw7VddXWSo4Voqd1VqYmhWyyjdCxk0bX
kUZ9V4EYr6fv0IWvRXWeyJKQrBsjiilu1b9TLcSmuTngdYTmlGYQtAdF3jReTUSt
HX4LOi+s/DktGVWnUV2Eytko69ocLUBDm809OZtBFBuT2jycWU4erw==
-----END CERTIFICATE-----
