Certificate:
    Data:
        Version: 3 (0x2)
        Serial Number:
            ac:4f:47:59:93:ce:30:cc:ec:4c:77:bf:2a:8b:3e:c9
    Signature Algorithm: sha256WithRSAEncryption
        Issuer: CN=ca.vpn.iwe.cloud
        Validity
            Not Before: Feb 26 17:00:23 2018 GMT
            Not After : Feb 24 17:00:23 2028 GMT
        Subject: CN=peter
        Subject Public Key Info:
            Public Key Algorithm: rsaEncryption
                Public-Key: (2048 bit)
                Modulus:
                    00:ca:99:b9:fb:36:43:21:ff:06:47:b6:a0:63:e5:
                    2a:47:2e:31:e8:75:c7:83:f7:b9:47:e1:d3:2f:99:
                    d4:a3:0b:a4:37:36:52:6f:10:1f:79:0b:41:71:d3:
                    de:e4:dc:d6:ae:18:8e:81:a6:17:3f:c3:4a:3a:c6:
                    2a:3d:30:42:35:e2:43:7b:81:9c:1d:b2:50:2e:5a:
                    35:b2:20:8d:d1:7f:69:75:8e:2b:4a:19:51:14:44:
                    99:c7:dd:f6:e4:02:81:9b:e0:e8:c0:95:24:b4:2f:
                    2f:75:af:46:02:df:2e:0c:ec:f6:ab:a2:90:77:83:
                    48:f4:d4:7f:e2:3d:f7:d1:71:02:0b:e2:95:e4:76:
                    7f:64:6f:2f:ed:ac:85:41:18:3b:9c:cc:21:8c:7b:
                    00:f6:17:78:6e:57:51:e0:56:4c:e6:45:8f:14:2d:
                    c7:2a:fd:67:96:34:e0:e7:8a:12:5b:21:eb:31:59:
                    73:63:1d:35:72:30:b7:e2:21:96:3f:2e:aa:64:bd:
                    44:09:c4:6f:53:fd:51:3e:b9:ed:66:96:fd:00:c8:
                    ed:25:10:5a:ee:e9:5b:af:0d:22:ea:7f:ab:84:62:
                    15:32:c0:5d:e9:31:2c:04:e7:ea:bf:5a:1e:66:69:
                    7a:90:31:d3:d9:ec:e9:75:72:13:61:a8:40:3f:53:
                    30:07
                Exponent: 65537 (0x10001)
        X509v3 extensions:
            X509v3 Basic Constraints: 
                CA:FALSE
            X509v3 Subject Key Identifier: 
                1A:7B:65:13:C4:E8:AF:D3:EA:4B:0E:03:9E:FE:8B:E2:C1:44:51:B0
            X509v3 Authority Key Identifier: 
                keyid:0E:33:82:DE:B3:32:8A:A7:DB:B2:C7:9D:28:4D:F3:7B:AB:A0:31:8C
                DirName:/CN=ca.vpn.iwe.cloud
                serial:89:A4:6D:17:37:78:20:66

            X509v3 Extended Key Usage: 
                TLS Web Client Authentication
            X509v3 Key Usage: 
                Digital Signature
    Signature Algorithm: sha256WithRSAEncryption
         8f:d2:12:26:5b:c2:33:6d:40:68:77:d8:14:c3:8f:df:95:de:
         b1:18:b9:44:41:bf:31:60:ca:7e:f1:c3:13:69:f5:2e:6b:12:
         b9:67:63:b2:81:84:d5:9c:c6:db:c3:3f:db:c4:8e:e2:17:f1:
         90:a7:6a:8c:26:f5:24:7d:74:62:d0:c8:3b:67:1e:73:a0:a6:
         28:91:5b:57:74:69:7f:cb:e2:2e:50:9f:77:6b:8a:c3:a2:ec:
         ac:f7:90:eb:e2:60:e8:09:1f:d8:84:88:78:44:b4:62:46:78:
         37:1a:8b:0c:a4:ed:36:11:0a:1f:b6:6c:9d:af:a9:3c:b7:72:
         d1:2b:fc:8e:51:81:b3:e3:f7:95:a6:39:58:80:58:d7:3a:a2:
         3c:01:6b:3e:88:86:35:8d:ea:6c:62:9f:22:57:e0:e7:40:af:
         40:1e:f9:fe:e4:77:43:e1:92:ff:0d:d9:e9:27:97:89:17:7d:
         a4:79:c8:50:fd:a7:42:a6:98:27:d2:ea:85:c0:d3:ac:c1:fb:
         7f:fe:8d:7b:3d:d6:a6:ea:90:78:4d:d8:ba:a6:fe:db:6d:64:
         f2:23:91:16:01:1c:91:3d:48:a2:83:e8:b6:88:f5:61:47:43:
         a0:de:db:c3:6f:95:cc:92:3d:fd:f6:e1:2b:e3:fc:b7:72:f7:
         7e:bb:51:b7
-----BEGIN CERTIFICATE-----
MIIDUzCCAjugAwIBAgIRAKxPR1mTzjDM7Ex3vyqLPskwDQYJKoZIhvcNAQELBQAw
GzEZMBcGA1UEAwwQY2EudnBuLml3ZS5jbG91ZDAeFw0xODAyMjYxNzAwMjNaFw0y
ODAyMjQxNzAwMjNaMBAxDjAMBgNVBAMMBXBldGVyMIIBIjANBgkqhkiG9w0BAQEF
AAOCAQ8AMIIBCgKCAQEAypm5+zZDIf8GR7agY+UqRy4x6HXHg/e5R+HTL5nUowuk
NzZSbxAfeQtBcdPe5NzWrhiOgaYXP8NKOsYqPTBCNeJDe4GcHbJQLlo1siCN0X9p
dY4rShlRFESZx9325AKBm+DowJUktC8vda9GAt8uDOz2q6KQd4NI9NR/4j330XEC
C+KV5HZ/ZG8v7ayFQRg7nMwhjHsA9hd4bldR4FZM5kWPFC3HKv1nljTg54oSWyHr
MVlzYx01cjC34iGWPy6qZL1ECcRvU/1RPrntZpb9AMjtJRBa7ulbrw0i6n+rhGIV
MsBd6TEsBOfqv1oeZml6kDHT2ezpdXITYahAP1MwBwIDAQABo4GcMIGZMAkGA1Ud
EwQCMAAwHQYDVR0OBBYEFBp7ZRPE6K/T6ksOA57+i+LBRFGwMEsGA1UdIwREMEKA
FA4zgt6zMoqn27LHnShN83uroDGMoR+kHTAbMRkwFwYDVQQDDBBjYS52cG4uaXdl
LmNsb3VkggkAiaRtFzd4IGYwEwYDVR0lBAwwCgYIKwYBBQUHAwIwCwYDVR0PBAQD
AgeAMA0GCSqGSIb3DQEBCwUAA4IBAQCP0hImW8IzbUBod9gUw4/fld6xGLlEQb8x
YMp+8cMTafUuaxK5Z2OygYTVnMbbwz/bxI7iF/GQp2qMJvUkfXRi0Mg7Zx5zoKYo
kVtXdGl/y+IuUJ93a4rDouys95Dr4mDoCR/YhIh4RLRiRng3GosMpO02EQoftmyd
r6k8t3LRK/yOUYGz4/eVpjlYgFjXOqI8AWs+iIY1jepsYp8iV+DnQK9AHvn+5HdD
4ZL/DdnpJ5eJF32kechQ/adCppgn0uqFwNOswft//o17Pdam6pB4Tdi6pv7bbWTy
I5EWARyRPUiig+i2iPVhR0Og3tvDb5XMkj399uEr4/y3cvd+u1G3
-----END CERTIFICATE-----
